
LED.elf:     file format elf32-littlearm

Sections:
Idx Name          Size      VMA       LMA       File off  Algn
  0 .isr_vector   000000bc  08000000  08000000  00010000  2**0
                  CONTENTS, ALLOC, LOAD, READONLY, DATA
  1 .text         000038e8  080000bc  080000bc  000100bc  2**2
                  CONTENTS, ALLOC, LOAD, READONLY, CODE
  2 .rodata       00000094  080039a4  080039a4  000139a4  2**2
                  CONTENTS, ALLOC, LOAD, READONLY, DATA
  3 .ARM.extab    00000000  08003a38  08003a38  0002000c  2**0
                  CONTENTS
  4 .ARM          00000000  08003a38  08003a38  0002000c  2**0
                  CONTENTS
  5 .preinit_array 00000000  08003a38  08003a38  0002000c  2**0
                  CONTENTS, ALLOC, LOAD, DATA
  6 .init_array   00000004  08003a38  08003a38  00013a38  2**2
                  CONTENTS, ALLOC, LOAD, DATA
  7 .fini_array   00000004  08003a3c  08003a3c  00013a3c  2**2
                  CONTENTS, ALLOC, LOAD, DATA
  8 .data         0000000c  20000000  08003a40  00020000  2**2
                  CONTENTS, ALLOC, LOAD, DATA
  9 .bss          000000d4  2000000c  08003a4c  0002000c  2**2
                  ALLOC
 10 ._user_heap_stack 00000600  200000e0  08003a4c  000200e0  2**0
                  ALLOC
 11 .ARM.attributes 00000028  00000000  00000000  0002000c  2**0
                  CONTENTS, READONLY
 12 .debug_info   0000ca51  00000000  00000000  00020034  2**0
                  CONTENTS, READONLY, DEBUGGING, OCTETS
 13 .debug_abbrev 00001ba5  00000000  00000000  0002ca85  2**0
                  CONTENTS, READONLY, DEBUGGING, OCTETS
 14 .debug_aranges 00000d38  00000000  00000000  0002e630  2**3
                  CONTENTS, READONLY, DEBUGGING, OCTETS
 15 .debug_ranges 00000c60  00000000  00000000  0002f368  2**3
                  CONTENTS, READONLY, DEBUGGING, OCTETS
 16 .debug_macro  0001bc8d  00000000  00000000  0002ffc8  2**0
                  CONTENTS, READONLY, DEBUGGING, OCTETS
 17 .debug_line   0000dcc2  00000000  00000000  0004bc55  2**0
                  CONTENTS, READONLY, DEBUGGING, OCTETS
 18 .debug_str    000ba416  00000000  00000000  00059917  2**0
                  CONTENTS, READONLY, DEBUGGING, OCTETS
 19 .comment      00000053  00000000  00000000  00113d2d  2**0
                  CONTENTS, READONLY
 20 .debug_frame  00002fc0  00000000  00000000  00113d80  2**2
                  CONTENTS, READONLY, DEBUGGING, OCTETS

Disassembly of section .text:

080000bc <__do_global_dtors_aux>:
 80000bc:	b510      	push	{r4, lr}
 80000be:	4c06      	ldr	r4, [pc, #24]	; (80000d8 <__do_global_dtors_aux+0x1c>)
 80000c0:	7823      	ldrb	r3, [r4, #0]
 80000c2:	2b00      	cmp	r3, #0
 80000c4:	d107      	bne.n	80000d6 <__do_global_dtors_aux+0x1a>
 80000c6:	4b05      	ldr	r3, [pc, #20]	; (80000dc <__do_global_dtors_aux+0x20>)
 80000c8:	2b00      	cmp	r3, #0
 80000ca:	d002      	beq.n	80000d2 <__do_global_dtors_aux+0x16>
 80000cc:	4804      	ldr	r0, [pc, #16]	; (80000e0 <__do_global_dtors_aux+0x24>)
 80000ce:	e000      	b.n	80000d2 <__do_global_dtors_aux+0x16>
 80000d0:	bf00      	nop
 80000d2:	2301      	movs	r3, #1
 80000d4:	7023      	strb	r3, [r4, #0]
 80000d6:	bd10      	pop	{r4, pc}
 80000d8:	2000000c 	.word	0x2000000c
 80000dc:	00000000 	.word	0x00000000
 80000e0:	0800398c 	.word	0x0800398c

080000e4 <frame_dummy>:
 80000e4:	4b04      	ldr	r3, [pc, #16]	; (80000f8 <frame_dummy+0x14>)
 80000e6:	b510      	push	{r4, lr}
 80000e8:	2b00      	cmp	r3, #0
 80000ea:	d003      	beq.n	80000f4 <frame_dummy+0x10>
 80000ec:	4903      	ldr	r1, [pc, #12]	; (80000fc <frame_dummy+0x18>)
 80000ee:	4804      	ldr	r0, [pc, #16]	; (8000100 <frame_dummy+0x1c>)
 80000f0:	e000      	b.n	80000f4 <frame_dummy+0x10>
 80000f2:	bf00      	nop
 80000f4:	bd10      	pop	{r4, pc}
 80000f6:	46c0      	nop			; (mov r8, r8)
 80000f8:	00000000 	.word	0x00000000
 80000fc:	20000010 	.word	0x20000010
 8000100:	0800398c 	.word	0x0800398c

08000104 <__udivsi3>:
 8000104:	2200      	movs	r2, #0
 8000106:	0843      	lsrs	r3, r0, #1
 8000108:	428b      	cmp	r3, r1
 800010a:	d374      	bcc.n	80001f6 <__udivsi3+0xf2>
 800010c:	0903      	lsrs	r3, r0, #4
 800010e:	428b      	cmp	r3, r1
 8000110:	d35f      	bcc.n	80001d2 <__udivsi3+0xce>
 8000112:	0a03      	lsrs	r3, r0, #8
 8000114:	428b      	cmp	r3, r1
 8000116:	d344      	bcc.n	80001a2 <__udivsi3+0x9e>
 8000118:	0b03      	lsrs	r3, r0, #12
 800011a:	428b      	cmp	r3, r1
 800011c:	d328      	bcc.n	8000170 <__udivsi3+0x6c>
 800011e:	0c03      	lsrs	r3, r0, #16
 8000120:	428b      	cmp	r3, r1
 8000122:	d30d      	bcc.n	8000140 <__udivsi3+0x3c>
 8000124:	22ff      	movs	r2, #255	; 0xff
 8000126:	0209      	lsls	r1, r1, #8
 8000128:	ba12      	rev	r2, r2
 800012a:	0c03      	lsrs	r3, r0, #16
 800012c:	428b      	cmp	r3, r1
 800012e:	d302      	bcc.n	8000136 <__udivsi3+0x32>
 8000130:	1212      	asrs	r2, r2, #8
 8000132:	0209      	lsls	r1, r1, #8
 8000134:	d065      	beq.n	8000202 <__udivsi3+0xfe>
 8000136:	0b03      	lsrs	r3, r0, #12
 8000138:	428b      	cmp	r3, r1
 800013a:	d319      	bcc.n	8000170 <__udivsi3+0x6c>
 800013c:	e000      	b.n	8000140 <__udivsi3+0x3c>
 800013e:	0a09      	lsrs	r1, r1, #8
 8000140:	0bc3      	lsrs	r3, r0, #15
 8000142:	428b      	cmp	r3, r1
 8000144:	d301      	bcc.n	800014a <__udivsi3+0x46>
 8000146:	03cb      	lsls	r3, r1, #15
 8000148:	1ac0      	subs	r0, r0, r3
 800014a:	4152      	adcs	r2, r2
 800014c:	0b83      	lsrs	r3, r0, #14
 800014e:	428b      	cmp	r3, r1
 8000150:	d301      	bcc.n	8000156 <__udivsi3+0x52>
 8000152:	038b      	lsls	r3, r1, #14
 8000154:	1ac0      	subs	r0, r0, r3
 8000156:	4152      	adcs	r2, r2
 8000158:	0b43      	lsrs	r3, r0, #13
 800015a:	428b      	cmp	r3, r1
 800015c:	d301      	bcc.n	8000162 <__udivsi3+0x5e>
 800015e:	034b      	lsls	r3, r1, #13
 8000160:	1ac0      	subs	r0, r0, r3
 8000162:	4152      	adcs	r2, r2
 8000164:	0b03      	lsrs	r3, r0, #12
 8000166:	428b      	cmp	r3, r1
 8000168:	d301      	bcc.n	800016e <__udivsi3+0x6a>
 800016a:	030b      	lsls	r3, r1, #12
 800016c:	1ac0      	subs	r0, r0, r3
 800016e:	4152      	adcs	r2, r2
 8000170:	0ac3      	lsrs	r3, r0, #11
 8000172:	428b      	cmp	r3, r1
 8000174:	d301      	bcc.n	800017a <__udivsi3+0x76>
 8000176:	02cb      	lsls	r3, r1, #11
 8000178:	1ac0      	subs	r0, r0, r3
 800017a:	4152      	adcs	r2, r2
 800017c:	0a83      	lsrs	r3, r0, #10
 800017e:	428b      	cmp	r3, r1
 8000180:	d301      	bcc.n	8000186 <__udivsi3+0x82>
 8000182:	028b      	lsls	r3, r1, #10
 8000184:	1ac0      	subs	r0, r0, r3
 8000186:	4152      	adcs	r2, r2
 8000188:	0a43      	lsrs	r3, r0, #9
 800018a:	428b      	cmp	r3, r1
 800018c:	d301      	bcc.n	8000192 <__udivsi3+0x8e>
 800018e:	024b      	lsls	r3, r1, #9
 8000190:	1ac0      	subs	r0, r0, r3
 8000192:	4152      	adcs	r2, r2
 8000194:	0a03      	lsrs	r3, r0, #8
 8000196:	428b      	cmp	r3, r1
 8000198:	d301      	bcc.n	800019e <__udivsi3+0x9a>
 800019a:	020b      	lsls	r3, r1, #8
 800019c:	1ac0      	subs	r0, r0, r3
 800019e:	4152      	adcs	r2, r2
 80001a0:	d2cd      	bcs.n	800013e <__udivsi3+0x3a>
 80001a2:	09c3      	lsrs	r3, r0, #7
 80001a4:	428b      	cmp	r3, r1
 80001a6:	d301      	bcc.n	80001ac <__udivsi3+0xa8>
 80001a8:	01cb      	lsls	r3, r1, #7
 80001aa:	1ac0      	subs	r0, r0, r3
 80001ac:	4152      	adcs	r2, r2
 80001ae:	0983      	lsrs	r3, r0, #6
 80001b0:	428b      	cmp	r3, r1
 80001b2:	d301      	bcc.n	80001b8 <__udivsi3+0xb4>
 80001b4:	018b      	lsls	r3, r1, #6
 80001b6:	1ac0      	subs	r0, r0, r3
 80001b8:	4152      	adcs	r2, r2
 80001ba:	0943      	lsrs	r3, r0, #5
 80001bc:	428b      	cmp	r3, r1
 80001be:	d301      	bcc.n	80001c4 <__udivsi3+0xc0>
 80001c0:	014b      	lsls	r3, r1, #5
 80001c2:	1ac0      	subs	r0, r0, r3
 80001c4:	4152      	adcs	r2, r2
 80001c6:	0903      	lsrs	r3, r0, #4
 80001c8:	428b      	cmp	r3, r1
 80001ca:	d301      	bcc.n	80001d0 <__udivsi3+0xcc>
 80001cc:	010b      	lsls	r3, r1, #4
 80001ce:	1ac0      	subs	r0, r0, r3
 80001d0:	4152      	adcs	r2, r2
 80001d2:	08c3      	lsrs	r3, r0, #3
 80001d4:	428b      	cmp	r3, r1
 80001d6:	d301      	bcc.n	80001dc <__udivsi3+0xd8>
 80001d8:	00cb      	lsls	r3, r1, #3
 80001da:	1ac0      	subs	r0, r0, r3
 80001dc:	4152      	adcs	r2, r2
 80001de:	0883      	lsrs	r3, r0, #2
 80001e0:	428b      	cmp	r3, r1
 80001e2:	d301      	bcc.n	80001e8 <__udivsi3+0xe4>
 80001e4:	008b      	lsls	r3, r1, #2
 80001e6:	1ac0      	subs	r0, r0, r3
 80001e8:	4152      	adcs	r2, r2
 80001ea:	0843      	lsrs	r3, r0, #1
 80001ec:	428b      	cmp	r3, r1
 80001ee:	d301      	bcc.n	80001f4 <__udivsi3+0xf0>
 80001f0:	004b      	lsls	r3, r1, #1
 80001f2:	1ac0      	subs	r0, r0, r3
 80001f4:	4152      	adcs	r2, r2
 80001f6:	1a41      	subs	r1, r0, r1
 80001f8:	d200      	bcs.n	80001fc <__udivsi3+0xf8>
 80001fa:	4601      	mov	r1, r0
 80001fc:	4152      	adcs	r2, r2
 80001fe:	4610      	mov	r0, r2
 8000200:	4770      	bx	lr
 8000202:	e7ff      	b.n	8000204 <__udivsi3+0x100>
 8000204:	b501      	push	{r0, lr}
 8000206:	2000      	movs	r0, #0
 8000208:	f000 f806 	bl	8000218 <__aeabi_idiv0>
 800020c:	bd02      	pop	{r1, pc}
 800020e:	46c0      	nop			; (mov r8, r8)

08000210 <__aeabi_uidivmod>:
 8000210:	2900      	cmp	r1, #0
 8000212:	d0f7      	beq.n	8000204 <__udivsi3+0x100>
 8000214:	e776      	b.n	8000104 <__udivsi3>
 8000216:	4770      	bx	lr

08000218 <__aeabi_idiv0>:
 8000218:	4770      	bx	lr
 800021a:	46c0      	nop			; (mov r8, r8)

0800021c <main>:
/**
  * @brief  The application entry point.
  * @retval int
  */
int main(void)
{
 800021c:	b580      	push	{r7, lr}
 800021e:	af00      	add	r7, sp, #0
  /* USER CODE END 1 */

  /* MCU Configuration--------------------------------------------------------*/

  /* Reset of all peripherals, Initializes the Flash interface and the Systick. */
  HAL_Init();
 8000220:	f000 fae8 	bl	80007f4 <HAL_Init>
  /* USER CODE BEGIN Init */

  /* USER CODE END Init */

  /* Configure the system clock */
  SystemClock_Config();
 8000224:	f000 f848 	bl	80002b8 <SystemClock_Config>
  /* USER CODE BEGIN SysInit */

  /* USER CODE END SysInit */

  /* Initialize all configured peripherals */
  MX_GPIO_Init();
 8000228:	f000 f976 	bl	8000518 <MX_GPIO_Init>
  MX_ADC1_Init();
 800022c:	f000 f88c 	bl	8000348 <MX_ADC1_Init>
  MX_TIM2_Init();
 8000230:	f000 f8f4 	bl	800041c <MX_TIM2_Init>
  /* USER CODE BEGIN 2 */
  HAL_TIM_PWM_Start(&htim2, TIM_CHANNEL_2);
 8000234:	4b1c      	ldr	r3, [pc, #112]	; (80002a8 <main+0x8c>)
 8000236:	2104      	movs	r1, #4
 8000238:	0018      	movs	r0, r3
 800023a:	f002 fc45 	bl	8002ac8 <HAL_TIM_PWM_Start>
  TIM2->CCR2 = 65;
 800023e:	2380      	movs	r3, #128	; 0x80
 8000240:	05db      	lsls	r3, r3, #23
 8000242:	2241      	movs	r2, #65	; 0x41
 8000244:	639a      	str	r2, [r3, #56]	; 0x38

  /* Infinite loop */
  /* USER CODE BEGIN WHILE */
  while (1)
  {
		HAL_ADC_Start(&hadc1);
 8000246:	4b19      	ldr	r3, [pc, #100]	; (80002ac <main+0x90>)
 8000248:	0018      	movs	r0, r3
 800024a:	f000 fe8f 	bl	8000f6c <HAL_ADC_Start>
		HAL_ADC_PollForConversion(&hadc1, 1);
 800024e:	4b17      	ldr	r3, [pc, #92]	; (80002ac <main+0x90>)
 8000250:	2101      	movs	r1, #1
 8000252:	0018      	movs	r0, r3
 8000254:	f000 fed8 	bl	8001008 <HAL_ADC_PollForConversion>
		ldr = HAL_ADC_GetValue(&hadc1);
 8000258:	4b14      	ldr	r3, [pc, #80]	; (80002ac <main+0x90>)
 800025a:	0018      	movs	r0, r3
 800025c:	f000 ff68 	bl	8001130 <HAL_ADC_GetValue>
 8000260:	0002      	movs	r2, r0
 8000262:	4b13      	ldr	r3, [pc, #76]	; (80002b0 <main+0x94>)
 8000264:	601a      	str	r2, [r3, #0]

		if (ldr < 25) {
 8000266:	4b12      	ldr	r3, [pc, #72]	; (80002b0 <main+0x94>)
 8000268:	681b      	ldr	r3, [r3, #0]
 800026a:	2b18      	cmp	r3, #24
 800026c:	d80c      	bhi.n	8000288 <main+0x6c>
			HAL_GPIO_WritePin(Buz_GPIO_Port, Buz_Pin, GPIO_PIN_SET);
 800026e:	2380      	movs	r3, #128	; 0x80
 8000270:	00db      	lsls	r3, r3, #3
 8000272:	4810      	ldr	r0, [pc, #64]	; (80002b4 <main+0x98>)
 8000274:	2201      	movs	r2, #1
 8000276:	0019      	movs	r1, r3
 8000278:	f001 fbe4 	bl	8001a44 <HAL_GPIO_WritePin>
			TIM2->CCR2 = 300;
 800027c:	2380      	movs	r3, #128	; 0x80
 800027e:	05db      	lsls	r3, r3, #23
 8000280:	2296      	movs	r2, #150	; 0x96
 8000282:	0052      	lsls	r2, r2, #1
 8000284:	639a      	str	r2, [r3, #56]	; 0x38
 8000286:	e00b      	b.n	80002a0 <main+0x84>
		}else{
			HAL_GPIO_WritePin(Buz_GPIO_Port, Buz_Pin, GPIO_PIN_RESET);
 8000288:	2380      	movs	r3, #128	; 0x80
 800028a:	00db      	lsls	r3, r3, #3
 800028c:	4809      	ldr	r0, [pc, #36]	; (80002b4 <main+0x98>)
 800028e:	2200      	movs	r2, #0
 8000290:	0019      	movs	r1, r3
 8000292:	f001 fbd7 	bl	8001a44 <HAL_GPIO_WritePin>
			TIM2->CCR2 = 500;
 8000296:	2380      	movs	r3, #128	; 0x80
 8000298:	05db      	lsls	r3, r3, #23
 800029a:	22fa      	movs	r2, #250	; 0xfa
 800029c:	0052      	lsls	r2, r2, #1
 800029e:	639a      	str	r2, [r3, #56]	; 0x38

    /* USER CODE END WHILE */

    /* USER CODE BEGIN 3 */

		HAL_Delay(10);
 80002a0:	200a      	movs	r0, #10
 80002a2:	f000 fb2d 	bl	8000900 <HAL_Delay>
		HAL_ADC_Start(&hadc1);
 80002a6:	e7ce      	b.n	8000246 <main+0x2a>
 80002a8:	20000090 	.word	0x20000090
 80002ac:	2000002c 	.word	0x2000002c
 80002b0:	20000028 	.word	0x20000028
 80002b4:	50000800 	.word	0x50000800

080002b8 <SystemClock_Config>:
/**
  * @brief System Clock Configuration
  * @retval None
  */
void SystemClock_Config(void)
{
 80002b8:	b590      	push	{r4, r7, lr}
 80002ba:	b095      	sub	sp, #84	; 0x54
 80002bc:	af00      	add	r7, sp, #0
  RCC_OscInitTypeDef RCC_OscInitStruct = {0};
 80002be:	2414      	movs	r4, #20
 80002c0:	193b      	adds	r3, r7, r4
 80002c2:	0018      	movs	r0, r3
 80002c4:	233c      	movs	r3, #60	; 0x3c
 80002c6:	001a      	movs	r2, r3
 80002c8:	2100      	movs	r1, #0
 80002ca:	f003 fb57 	bl	800397c <memset>
  RCC_ClkInitTypeDef RCC_ClkInitStruct = {0};
 80002ce:	1d3b      	adds	r3, r7, #4
 80002d0:	0018      	movs	r0, r3
 80002d2:	2310      	movs	r3, #16
 80002d4:	001a      	movs	r2, r3
 80002d6:	2100      	movs	r1, #0
 80002d8:	f003 fb50 	bl	800397c <memset>

  /** Configure the main internal regulator output voltage
  */
  HAL_PWREx_ControlVoltageScaling(PWR_REGULATOR_VOLTAGE_SCALE1);
 80002dc:	2380      	movs	r3, #128	; 0x80
 80002de:	009b      	lsls	r3, r3, #2
 80002e0:	0018      	movs	r0, r3
 80002e2:	f001 fbcd 	bl	8001a80 <HAL_PWREx_ControlVoltageScaling>
  /** Initializes the RCC Oscillators according to the specified parameters
  * in the RCC_OscInitTypeDef structure.
  */
  RCC_OscInitStruct.OscillatorType = RCC_OSCILLATORTYPE_HSI;
 80002e6:	193b      	adds	r3, r7, r4
 80002e8:	2202      	movs	r2, #2
 80002ea:	601a      	str	r2, [r3, #0]
  RCC_OscInitStruct.HSIState = RCC_HSI_ON;
 80002ec:	193b      	adds	r3, r7, r4
 80002ee:	2280      	movs	r2, #128	; 0x80
 80002f0:	0052      	lsls	r2, r2, #1
 80002f2:	60da      	str	r2, [r3, #12]
  RCC_OscInitStruct.HSIDiv = RCC_HSI_DIV1;
 80002f4:	193b      	adds	r3, r7, r4
 80002f6:	2200      	movs	r2, #0
 80002f8:	611a      	str	r2, [r3, #16]
  RCC_OscInitStruct.HSICalibrationValue = RCC_HSICALIBRATION_DEFAULT;
 80002fa:	193b      	adds	r3, r7, r4
 80002fc:	2240      	movs	r2, #64	; 0x40
 80002fe:	615a      	str	r2, [r3, #20]
  RCC_OscInitStruct.PLL.PLLState = RCC_PLL_NONE;
 8000300:	193b      	adds	r3, r7, r4
 8000302:	2200      	movs	r2, #0
 8000304:	621a      	str	r2, [r3, #32]
  if (HAL_RCC_OscConfig(&RCC_OscInitStruct) != HAL_OK)
 8000306:	193b      	adds	r3, r7, r4
 8000308:	0018      	movs	r0, r3
 800030a:	f001 fbf9 	bl	8001b00 <HAL_RCC_OscConfig>
 800030e:	1e03      	subs	r3, r0, #0
 8000310:	d001      	beq.n	8000316 <SystemClock_Config+0x5e>
  {
    Error_Handler();
 8000312:	f000 f947 	bl	80005a4 <Error_Handler>
  }
  /** Initializes the CPU, AHB and APB buses clocks
  */
  RCC_ClkInitStruct.ClockType = RCC_CLOCKTYPE_HCLK|RCC_CLOCKTYPE_SYSCLK
 8000316:	1d3b      	adds	r3, r7, #4
 8000318:	2207      	movs	r2, #7
 800031a:	601a      	str	r2, [r3, #0]
                              |RCC_CLOCKTYPE_PCLK1;
  RCC_ClkInitStruct.SYSCLKSource = RCC_SYSCLKSOURCE_HSI;
 800031c:	1d3b      	adds	r3, r7, #4
 800031e:	2200      	movs	r2, #0
 8000320:	605a      	str	r2, [r3, #4]
  RCC_ClkInitStruct.AHBCLKDivider = RCC_SYSCLK_DIV1;
 8000322:	1d3b      	adds	r3, r7, #4
 8000324:	2200      	movs	r2, #0
 8000326:	609a      	str	r2, [r3, #8]
  RCC_ClkInitStruct.APB1CLKDivider = RCC_HCLK_DIV1;
 8000328:	1d3b      	adds	r3, r7, #4
 800032a:	2200      	movs	r2, #0
 800032c:	60da      	str	r2, [r3, #12]

  if (HAL_RCC_ClockConfig(&RCC_ClkInitStruct, FLASH_LATENCY_0) != HAL_OK)
 800032e:	1d3b      	adds	r3, r7, #4
 8000330:	2100      	movs	r1, #0
 8000332:	0018      	movs	r0, r3
 8000334:	f001 ff4a 	bl	80021cc <HAL_RCC_ClockConfig>
 8000338:	1e03      	subs	r3, r0, #0
 800033a:	d001      	beq.n	8000340 <SystemClock_Config+0x88>
  {
    Error_Handler();
 800033c:	f000 f932 	bl	80005a4 <Error_Handler>
  }
}
 8000340:	46c0      	nop			; (mov r8, r8)
 8000342:	46bd      	mov	sp, r7
 8000344:	b015      	add	sp, #84	; 0x54
 8000346:	bd90      	pop	{r4, r7, pc}

08000348 <MX_ADC1_Init>:
  * @brief ADC1 Initialization Function
  * @param None
  * @retval None
  */
static void MX_ADC1_Init(void)
{
 8000348:	b580      	push	{r7, lr}
 800034a:	b084      	sub	sp, #16
 800034c:	af00      	add	r7, sp, #0

  /* USER CODE BEGIN ADC1_Init 0 */

  /* USER CODE END ADC1_Init 0 */

  ADC_ChannelConfTypeDef sConfig = {0};
 800034e:	1d3b      	adds	r3, r7, #4
 8000350:	0018      	movs	r0, r3
 8000352:	230c      	movs	r3, #12
 8000354:	001a      	movs	r2, r3
 8000356:	2100      	movs	r1, #0
 8000358:	f003 fb10 	bl	800397c <memset>
  /* USER CODE BEGIN ADC1_Init 1 */

  /* USER CODE END ADC1_Init 1 */
  /** Configure the global features of the ADC (Clock, Resolution, Data Alignment and number of conversion)
  */
  hadc1.Instance = ADC1;
 800035c:	4b2d      	ldr	r3, [pc, #180]	; (8000414 <MX_ADC1_Init+0xcc>)
 800035e:	4a2e      	ldr	r2, [pc, #184]	; (8000418 <MX_ADC1_Init+0xd0>)
 8000360:	601a      	str	r2, [r3, #0]
  hadc1.Init.ClockPrescaler = ADC_CLOCK_SYNC_PCLK_DIV2;
 8000362:	4b2c      	ldr	r3, [pc, #176]	; (8000414 <MX_ADC1_Init+0xcc>)
 8000364:	2280      	movs	r2, #128	; 0x80
 8000366:	05d2      	lsls	r2, r2, #23
 8000368:	605a      	str	r2, [r3, #4]
  hadc1.Init.Resolution = ADC_RESOLUTION_6B;
 800036a:	4b2a      	ldr	r3, [pc, #168]	; (8000414 <MX_ADC1_Init+0xcc>)
 800036c:	2218      	movs	r2, #24
 800036e:	609a      	str	r2, [r3, #8]
  hadc1.Init.DataAlign = ADC_DATAALIGN_RIGHT;
 8000370:	4b28      	ldr	r3, [pc, #160]	; (8000414 <MX_ADC1_Init+0xcc>)
 8000372:	2200      	movs	r2, #0
 8000374:	60da      	str	r2, [r3, #12]
  hadc1.Init.ScanConvMode = ADC_SCAN_DISABLE;
 8000376:	4b27      	ldr	r3, [pc, #156]	; (8000414 <MX_ADC1_Init+0xcc>)
 8000378:	2200      	movs	r2, #0
 800037a:	611a      	str	r2, [r3, #16]
  hadc1.Init.EOCSelection = ADC_EOC_SINGLE_CONV;
 800037c:	4b25      	ldr	r3, [pc, #148]	; (8000414 <MX_ADC1_Init+0xcc>)
 800037e:	2204      	movs	r2, #4
 8000380:	615a      	str	r2, [r3, #20]
  hadc1.Init.LowPowerAutoWait = DISABLE;
 8000382:	4b24      	ldr	r3, [pc, #144]	; (8000414 <MX_ADC1_Init+0xcc>)
 8000384:	2200      	movs	r2, #0
 8000386:	761a      	strb	r2, [r3, #24]
  hadc1.Init.LowPowerAutoPowerOff = DISABLE;
 8000388:	4b22      	ldr	r3, [pc, #136]	; (8000414 <MX_ADC1_Init+0xcc>)
 800038a:	2200      	movs	r2, #0
 800038c:	765a      	strb	r2, [r3, #25]
  hadc1.Init.ContinuousConvMode = ENABLE;
 800038e:	4b21      	ldr	r3, [pc, #132]	; (8000414 <MX_ADC1_Init+0xcc>)
 8000390:	2201      	movs	r2, #1
 8000392:	769a      	strb	r2, [r3, #26]
  hadc1.Init.NbrOfConversion = 1;
 8000394:	4b1f      	ldr	r3, [pc, #124]	; (8000414 <MX_ADC1_Init+0xcc>)
 8000396:	2201      	movs	r2, #1
 8000398:	61da      	str	r2, [r3, #28]
  hadc1.Init.DiscontinuousConvMode = DISABLE;
 800039a:	4b1e      	ldr	r3, [pc, #120]	; (8000414 <MX_ADC1_Init+0xcc>)
 800039c:	2220      	movs	r2, #32
 800039e:	2100      	movs	r1, #0
 80003a0:	5499      	strb	r1, [r3, r2]
  hadc1.Init.ExternalTrigConv = ADC_SOFTWARE_START;
 80003a2:	4b1c      	ldr	r3, [pc, #112]	; (8000414 <MX_ADC1_Init+0xcc>)
 80003a4:	2200      	movs	r2, #0
 80003a6:	625a      	str	r2, [r3, #36]	; 0x24
  hadc1.Init.ExternalTrigConvEdge = ADC_EXTERNALTRIGCONVEDGE_NONE;
 80003a8:	4b1a      	ldr	r3, [pc, #104]	; (8000414 <MX_ADC1_Init+0xcc>)
 80003aa:	2200      	movs	r2, #0
 80003ac:	629a      	str	r2, [r3, #40]	; 0x28
  hadc1.Init.DMAContinuousRequests = DISABLE;
 80003ae:	4b19      	ldr	r3, [pc, #100]	; (8000414 <MX_ADC1_Init+0xcc>)
 80003b0:	222c      	movs	r2, #44	; 0x2c
 80003b2:	2100      	movs	r1, #0
 80003b4:	5499      	strb	r1, [r3, r2]
  hadc1.Init.Overrun = ADC_OVR_DATA_PRESERVED;
 80003b6:	4b17      	ldr	r3, [pc, #92]	; (8000414 <MX_ADC1_Init+0xcc>)
 80003b8:	2200      	movs	r2, #0
 80003ba:	631a      	str	r2, [r3, #48]	; 0x30
  hadc1.Init.SamplingTimeCommon1 = ADC_SAMPLETIME_1CYCLE_5;
 80003bc:	4b15      	ldr	r3, [pc, #84]	; (8000414 <MX_ADC1_Init+0xcc>)
 80003be:	2200      	movs	r2, #0
 80003c0:	635a      	str	r2, [r3, #52]	; 0x34
  hadc1.Init.SamplingTimeCommon2 = ADC_SAMPLETIME_1CYCLE_5;
 80003c2:	4b14      	ldr	r3, [pc, #80]	; (8000414 <MX_ADC1_Init+0xcc>)
 80003c4:	2200      	movs	r2, #0
 80003c6:	639a      	str	r2, [r3, #56]	; 0x38
  hadc1.Init.OversamplingMode = DISABLE;
 80003c8:	4b12      	ldr	r3, [pc, #72]	; (8000414 <MX_ADC1_Init+0xcc>)
 80003ca:	223c      	movs	r2, #60	; 0x3c
 80003cc:	2100      	movs	r1, #0
 80003ce:	5499      	strb	r1, [r3, r2]
  hadc1.Init.TriggerFrequencyMode = ADC_TRIGGER_FREQ_HIGH;
 80003d0:	4b10      	ldr	r3, [pc, #64]	; (8000414 <MX_ADC1_Init+0xcc>)
 80003d2:	2200      	movs	r2, #0
 80003d4:	64da      	str	r2, [r3, #76]	; 0x4c
  if (HAL_ADC_Init(&hadc1) != HAL_OK)
 80003d6:	4b0f      	ldr	r3, [pc, #60]	; (8000414 <MX_ADC1_Init+0xcc>)
 80003d8:	0018      	movs	r0, r3
 80003da:	f000 fbe9 	bl	8000bb0 <HAL_ADC_Init>
 80003de:	1e03      	subs	r3, r0, #0
 80003e0:	d001      	beq.n	80003e6 <MX_ADC1_Init+0x9e>
  {
    Error_Handler();
 80003e2:	f000 f8df 	bl	80005a4 <Error_Handler>
  }
  /** Configure Regular Channel
  */
  sConfig.Channel = ADC_CHANNEL_0;
 80003e6:	1d3b      	adds	r3, r7, #4
 80003e8:	2201      	movs	r2, #1
 80003ea:	601a      	str	r2, [r3, #0]
  sConfig.Rank = ADC_REGULAR_RANK_1;
 80003ec:	1d3b      	adds	r3, r7, #4
 80003ee:	2200      	movs	r2, #0
 80003f0:	605a      	str	r2, [r3, #4]
  sConfig.SamplingTime = ADC_SAMPLINGTIME_COMMON_1;
 80003f2:	1d3b      	adds	r3, r7, #4
 80003f4:	2200      	movs	r2, #0
 80003f6:	609a      	str	r2, [r3, #8]
  if (HAL_ADC_ConfigChannel(&hadc1, &sConfig) != HAL_OK)
 80003f8:	1d3a      	adds	r2, r7, #4
 80003fa:	4b06      	ldr	r3, [pc, #24]	; (8000414 <MX_ADC1_Init+0xcc>)
 80003fc:	0011      	movs	r1, r2
 80003fe:	0018      	movs	r0, r3
 8000400:	f000 fea2 	bl	8001148 <HAL_ADC_ConfigChannel>
 8000404:	1e03      	subs	r3, r0, #0
 8000406:	d001      	beq.n	800040c <MX_ADC1_Init+0xc4>
  {
    Error_Handler();
 8000408:	f000 f8cc 	bl	80005a4 <Error_Handler>
  }
  /* USER CODE BEGIN ADC1_Init 2 */

  /* USER CODE END ADC1_Init 2 */

}
 800040c:	46c0      	nop			; (mov r8, r8)
 800040e:	46bd      	mov	sp, r7
 8000410:	b004      	add	sp, #16
 8000412:	bd80      	pop	{r7, pc}
 8000414:	2000002c 	.word	0x2000002c
 8000418:	40012400 	.word	0x40012400

0800041c <MX_TIM2_Init>:
  * @brief TIM2 Initialization Function
  * @param None
  * @retval None
  */
static void MX_TIM2_Init(void)
{
 800041c:	b580      	push	{r7, lr}
 800041e:	b08e      	sub	sp, #56	; 0x38
 8000420:	af00      	add	r7, sp, #0

  /* USER CODE BEGIN TIM2_Init 0 */

  /* USER CODE END TIM2_Init 0 */

  TIM_ClockConfigTypeDef sClockSourceConfig = {0};
 8000422:	2328      	movs	r3, #40	; 0x28
 8000424:	18fb      	adds	r3, r7, r3
 8000426:	0018      	movs	r0, r3
 8000428:	2310      	movs	r3, #16
 800042a:	001a      	movs	r2, r3
 800042c:	2100      	movs	r1, #0
 800042e:	f003 faa5 	bl	800397c <memset>
  TIM_MasterConfigTypeDef sMasterConfig = {0};
 8000432:	231c      	movs	r3, #28
 8000434:	18fb      	adds	r3, r7, r3
 8000436:	0018      	movs	r0, r3
 8000438:	230c      	movs	r3, #12
 800043a:	001a      	movs	r2, r3
 800043c:	2100      	movs	r1, #0
 800043e:	f003 fa9d 	bl	800397c <memset>
  TIM_OC_InitTypeDef sConfigOC = {0};
 8000442:	003b      	movs	r3, r7
 8000444:	0018      	movs	r0, r3
 8000446:	231c      	movs	r3, #28
 8000448:	001a      	movs	r2, r3
 800044a:	2100      	movs	r1, #0
 800044c:	f003 fa96 	bl	800397c <memset>

  /* USER CODE BEGIN TIM2_Init 1 */

  /* USER CODE END TIM2_Init 1 */
  htim2.Instance = TIM2;
 8000450:	4b30      	ldr	r3, [pc, #192]	; (8000514 <MX_TIM2_Init+0xf8>)
 8000452:	2280      	movs	r2, #128	; 0x80
 8000454:	05d2      	lsls	r2, r2, #23
 8000456:	601a      	str	r2, [r3, #0]
  htim2.Init.Prescaler = 64;
 8000458:	4b2e      	ldr	r3, [pc, #184]	; (8000514 <MX_TIM2_Init+0xf8>)
 800045a:	2240      	movs	r2, #64	; 0x40
 800045c:	605a      	str	r2, [r3, #4]
  htim2.Init.CounterMode = TIM_COUNTERMODE_UP;
 800045e:	4b2d      	ldr	r3, [pc, #180]	; (8000514 <MX_TIM2_Init+0xf8>)
 8000460:	2200      	movs	r2, #0
 8000462:	609a      	str	r2, [r3, #8]
  htim2.Init.Period = 1000;
 8000464:	4b2b      	ldr	r3, [pc, #172]	; (8000514 <MX_TIM2_Init+0xf8>)
 8000466:	22fa      	movs	r2, #250	; 0xfa
 8000468:	0092      	lsls	r2, r2, #2
 800046a:	60da      	str	r2, [r3, #12]
  htim2.Init.ClockDivision = TIM_CLOCKDIVISION_DIV1;
 800046c:	4b29      	ldr	r3, [pc, #164]	; (8000514 <MX_TIM2_Init+0xf8>)
 800046e:	2200      	movs	r2, #0
 8000470:	611a      	str	r2, [r3, #16]
  htim2.Init.AutoReloadPreload = TIM_AUTORELOAD_PRELOAD_DISABLE;
 8000472:	4b28      	ldr	r3, [pc, #160]	; (8000514 <MX_TIM2_Init+0xf8>)
 8000474:	2200      	movs	r2, #0
 8000476:	619a      	str	r2, [r3, #24]
  if (HAL_TIM_Base_Init(&htim2) != HAL_OK)
 8000478:	4b26      	ldr	r3, [pc, #152]	; (8000514 <MX_TIM2_Init+0xf8>)
 800047a:	0018      	movs	r0, r3
 800047c:	f002 fa6c 	bl	8002958 <HAL_TIM_Base_Init>
 8000480:	1e03      	subs	r3, r0, #0
 8000482:	d001      	beq.n	8000488 <MX_TIM2_Init+0x6c>
  {
    Error_Handler();
 8000484:	f000 f88e 	bl	80005a4 <Error_Handler>
  }
  sClockSourceConfig.ClockSource = TIM_CLOCKSOURCE_INTERNAL;
 8000488:	2128      	movs	r1, #40	; 0x28
 800048a:	187b      	adds	r3, r7, r1
 800048c:	2280      	movs	r2, #128	; 0x80
 800048e:	0152      	lsls	r2, r2, #5
 8000490:	601a      	str	r2, [r3, #0]
  if (HAL_TIM_ConfigClockSource(&htim2, &sClockSourceConfig) != HAL_OK)
 8000492:	187a      	adds	r2, r7, r1
 8000494:	4b1f      	ldr	r3, [pc, #124]	; (8000514 <MX_TIM2_Init+0xf8>)
 8000496:	0011      	movs	r1, r2
 8000498:	0018      	movs	r0, r3
 800049a:	f002 fcfb 	bl	8002e94 <HAL_TIM_ConfigClockSource>
 800049e:	1e03      	subs	r3, r0, #0
 80004a0:	d001      	beq.n	80004a6 <MX_TIM2_Init+0x8a>
  {
    Error_Handler();
 80004a2:	f000 f87f 	bl	80005a4 <Error_Handler>
  }
  if (HAL_TIM_PWM_Init(&htim2) != HAL_OK)
 80004a6:	4b1b      	ldr	r3, [pc, #108]	; (8000514 <MX_TIM2_Init+0xf8>)
 80004a8:	0018      	movs	r0, r3
 80004aa:	f002 faad 	bl	8002a08 <HAL_TIM_PWM_Init>
 80004ae:	1e03      	subs	r3, r0, #0
 80004b0:	d001      	beq.n	80004b6 <MX_TIM2_Init+0x9a>
  {
    Error_Handler();
 80004b2:	f000 f877 	bl	80005a4 <Error_Handler>
  }
  sMasterConfig.MasterOutputTrigger = TIM_TRGO_RESET;
 80004b6:	211c      	movs	r1, #28
 80004b8:	187b      	adds	r3, r7, r1
 80004ba:	2200      	movs	r2, #0
 80004bc:	601a      	str	r2, [r3, #0]
  sMasterConfig.MasterSlaveMode = TIM_MASTERSLAVEMODE_DISABLE;
 80004be:	187b      	adds	r3, r7, r1
 80004c0:	2200      	movs	r2, #0
 80004c2:	609a      	str	r2, [r3, #8]
  if (HAL_TIMEx_MasterConfigSynchronization(&htim2, &sMasterConfig) != HAL_OK)
 80004c4:	187a      	adds	r2, r7, r1
 80004c6:	4b13      	ldr	r3, [pc, #76]	; (8000514 <MX_TIM2_Init+0xf8>)
 80004c8:	0011      	movs	r1, r2
 80004ca:	0018      	movs	r0, r3
 80004cc:	f003 f9bc 	bl	8003848 <HAL_TIMEx_MasterConfigSynchronization>
 80004d0:	1e03      	subs	r3, r0, #0
 80004d2:	d001      	beq.n	80004d8 <MX_TIM2_Init+0xbc>
  {
    Error_Handler();
 80004d4:	f000 f866 	bl	80005a4 <Error_Handler>
  }
  sConfigOC.OCMode = TIM_OCMODE_PWM1;
 80004d8:	003b      	movs	r3, r7
 80004da:	2260      	movs	r2, #96	; 0x60
 80004dc:	601a      	str	r2, [r3, #0]
  sConfigOC.Pulse = 0;
 80004de:	003b      	movs	r3, r7
 80004e0:	2200      	movs	r2, #0
 80004e2:	605a      	str	r2, [r3, #4]
  sConfigOC.OCPolarity = TIM_OCPOLARITY_HIGH;
 80004e4:	003b      	movs	r3, r7
 80004e6:	2200      	movs	r2, #0
 80004e8:	609a      	str	r2, [r3, #8]
  sConfigOC.OCFastMode = TIM_OCFAST_DISABLE;
 80004ea:	003b      	movs	r3, r7
 80004ec:	2200      	movs	r2, #0
 80004ee:	611a      	str	r2, [r3, #16]
  if (HAL_TIM_PWM_ConfigChannel(&htim2, &sConfigOC, TIM_CHANNEL_2) != HAL_OK)
 80004f0:	0039      	movs	r1, r7
 80004f2:	4b08      	ldr	r3, [pc, #32]	; (8000514 <MX_TIM2_Init+0xf8>)
 80004f4:	2204      	movs	r2, #4
 80004f6:	0018      	movs	r0, r3
 80004f8:	f002 fbd6 	bl	8002ca8 <HAL_TIM_PWM_ConfigChannel>
 80004fc:	1e03      	subs	r3, r0, #0
 80004fe:	d001      	beq.n	8000504 <MX_TIM2_Init+0xe8>
  {
    Error_Handler();
 8000500:	f000 f850 	bl	80005a4 <Error_Handler>
  }
  /* USER CODE BEGIN TIM2_Init 2 */

  /* USER CODE END TIM2_Init 2 */
  HAL_TIM_MspPostInit(&htim2);
 8000504:	4b03      	ldr	r3, [pc, #12]	; (8000514 <MX_TIM2_Init+0xf8>)
 8000506:	0018      	movs	r0, r3
 8000508:	f000 f8f2 	bl	80006f0 <HAL_TIM_MspPostInit>

}
 800050c:	46c0      	nop			; (mov r8, r8)
 800050e:	46bd      	mov	sp, r7
 8000510:	b00e      	add	sp, #56	; 0x38
 8000512:	bd80      	pop	{r7, pc}
 8000514:	20000090 	.word	0x20000090

08000518 <MX_GPIO_Init>:
  * @brief GPIO Initialization Function
  * @param None
  * @retval None
  */
static void MX_GPIO_Init(void)
{
 8000518:	b590      	push	{r4, r7, lr}
 800051a:	b089      	sub	sp, #36	; 0x24
 800051c:	af00      	add	r7, sp, #0
  GPIO_InitTypeDef GPIO_InitStruct = {0};
 800051e:	240c      	movs	r4, #12
 8000520:	193b      	adds	r3, r7, r4
 8000522:	0018      	movs	r0, r3
 8000524:	2314      	movs	r3, #20
 8000526:	001a      	movs	r2, r3
 8000528:	2100      	movs	r1, #0
 800052a:	f003 fa27 	bl	800397c <memset>

  /* GPIO Ports Clock Enable */
  __HAL_RCC_GPIOA_CLK_ENABLE();
 800052e:	4b1b      	ldr	r3, [pc, #108]	; (800059c <MX_GPIO_Init+0x84>)
 8000530:	6b5a      	ldr	r2, [r3, #52]	; 0x34
 8000532:	4b1a      	ldr	r3, [pc, #104]	; (800059c <MX_GPIO_Init+0x84>)
 8000534:	2101      	movs	r1, #1
 8000536:	430a      	orrs	r2, r1
 8000538:	635a      	str	r2, [r3, #52]	; 0x34
 800053a:	4b18      	ldr	r3, [pc, #96]	; (800059c <MX_GPIO_Init+0x84>)
 800053c:	6b5b      	ldr	r3, [r3, #52]	; 0x34
 800053e:	2201      	movs	r2, #1
 8000540:	4013      	ands	r3, r2
 8000542:	60bb      	str	r3, [r7, #8]
 8000544:	68bb      	ldr	r3, [r7, #8]
  __HAL_RCC_GPIOC_CLK_ENABLE();
 8000546:	4b15      	ldr	r3, [pc, #84]	; (800059c <MX_GPIO_Init+0x84>)
 8000548:	6b5a      	ldr	r2, [r3, #52]	; 0x34
 800054a:	4b14      	ldr	r3, [pc, #80]	; (800059c <MX_GPIO_Init+0x84>)
 800054c:	2104      	movs	r1, #4
 800054e:	430a      	orrs	r2, r1
 8000550:	635a      	str	r2, [r3, #52]	; 0x34
 8000552:	4b12      	ldr	r3, [pc, #72]	; (800059c <MX_GPIO_Init+0x84>)
 8000554:	6b5b      	ldr	r3, [r3, #52]	; 0x34
 8000556:	2204      	movs	r2, #4
 8000558:	4013      	ands	r3, r2
 800055a:	607b      	str	r3, [r7, #4]
 800055c:	687b      	ldr	r3, [r7, #4]

  /*Configure GPIO pin Output Level */
  HAL_GPIO_WritePin(Buz_GPIO_Port, Buz_Pin, GPIO_PIN_RESET);
 800055e:	2380      	movs	r3, #128	; 0x80
 8000560:	00db      	lsls	r3, r3, #3
 8000562:	480f      	ldr	r0, [pc, #60]	; (80005a0 <MX_GPIO_Init+0x88>)
 8000564:	2200      	movs	r2, #0
 8000566:	0019      	movs	r1, r3
 8000568:	f001 fa6c 	bl	8001a44 <HAL_GPIO_WritePin>

  /*Configure GPIO pin : Buz_Pin */
  GPIO_InitStruct.Pin = Buz_Pin;
 800056c:	193b      	adds	r3, r7, r4
 800056e:	2280      	movs	r2, #128	; 0x80
 8000570:	00d2      	lsls	r2, r2, #3
 8000572:	601a      	str	r2, [r3, #0]
  GPIO_InitStruct.Mode = GPIO_MODE_OUTPUT_PP;
 8000574:	193b      	adds	r3, r7, r4
 8000576:	2201      	movs	r2, #1
 8000578:	605a      	str	r2, [r3, #4]
  GPIO_InitStruct.Pull = GPIO_NOPULL;
 800057a:	193b      	adds	r3, r7, r4
 800057c:	2200      	movs	r2, #0
 800057e:	609a      	str	r2, [r3, #8]
  GPIO_InitStruct.Speed = GPIO_SPEED_FREQ_LOW;
 8000580:	193b      	adds	r3, r7, r4
 8000582:	2200      	movs	r2, #0
 8000584:	60da      	str	r2, [r3, #12]
  HAL_GPIO_Init(Buz_GPIO_Port, &GPIO_InitStruct);
 8000586:	193b      	adds	r3, r7, r4
 8000588:	4a05      	ldr	r2, [pc, #20]	; (80005a0 <MX_GPIO_Init+0x88>)
 800058a:	0019      	movs	r1, r3
 800058c:	0010      	movs	r0, r2
 800058e:	f001 f8ed 	bl	800176c <HAL_GPIO_Init>

}
 8000592:	46c0      	nop			; (mov r8, r8)
 8000594:	46bd      	mov	sp, r7
 8000596:	b009      	add	sp, #36	; 0x24
 8000598:	bd90      	pop	{r4, r7, pc}
 800059a:	46c0      	nop			; (mov r8, r8)
 800059c:	40021000 	.word	0x40021000
 80005a0:	50000800 	.word	0x50000800

080005a4 <Error_Handler>:
/**
  * @brief  This function is executed in case of error occurrence.
  * @retval None
  */
void Error_Handler(void)
{
 80005a4:	b580      	push	{r7, lr}
 80005a6:	af00      	add	r7, sp, #0
  \details Disables IRQ interrupts by setting the I-bit in the CPSR.
           Can only be executed in Privileged modes.
 */
__STATIC_FORCEINLINE void __disable_irq(void)
{
  __ASM volatile ("cpsid i" : : : "memory");
 80005a8:	b672      	cpsid	i
}
 80005aa:	46c0      	nop			; (mov r8, r8)
  /* USER CODE BEGIN Error_Handler_Debug */
  /* User can add his own implementation to report the HAL error return state */
  __disable_irq();
  while (1)
 80005ac:	e7fe      	b.n	80005ac <Error_Handler+0x8>
	...

080005b0 <HAL_MspInit>:
void HAL_TIM_MspPostInit(TIM_HandleTypeDef *htim);
                    /**
  * Initializes the Global MSP.
  */
void HAL_MspInit(void)
{
 80005b0:	b580      	push	{r7, lr}
 80005b2:	b082      	sub	sp, #8
 80005b4:	af00      	add	r7, sp, #0
  /* USER CODE BEGIN MspInit 0 */

  /* USER CODE END MspInit 0 */

  __HAL_RCC_SYSCFG_CLK_ENABLE();
 80005b6:	4b11      	ldr	r3, [pc, #68]	; (80005fc <HAL_MspInit+0x4c>)
 80005b8:	6c1a      	ldr	r2, [r3, #64]	; 0x40
 80005ba:	4b10      	ldr	r3, [pc, #64]	; (80005fc <HAL_MspInit+0x4c>)
 80005bc:	2101      	movs	r1, #1
 80005be:	430a      	orrs	r2, r1
 80005c0:	641a      	str	r2, [r3, #64]	; 0x40
 80005c2:	4b0e      	ldr	r3, [pc, #56]	; (80005fc <HAL_MspInit+0x4c>)
 80005c4:	6c1b      	ldr	r3, [r3, #64]	; 0x40
 80005c6:	2201      	movs	r2, #1
 80005c8:	4013      	ands	r3, r2
 80005ca:	607b      	str	r3, [r7, #4]
 80005cc:	687b      	ldr	r3, [r7, #4]
  __HAL_RCC_PWR_CLK_ENABLE();
 80005ce:	4b0b      	ldr	r3, [pc, #44]	; (80005fc <HAL_MspInit+0x4c>)
 80005d0:	6bda      	ldr	r2, [r3, #60]	; 0x3c
 80005d2:	4b0a      	ldr	r3, [pc, #40]	; (80005fc <HAL_MspInit+0x4c>)
 80005d4:	2180      	movs	r1, #128	; 0x80
 80005d6:	0549      	lsls	r1, r1, #21
 80005d8:	430a      	orrs	r2, r1
 80005da:	63da      	str	r2, [r3, #60]	; 0x3c
 80005dc:	4b07      	ldr	r3, [pc, #28]	; (80005fc <HAL_MspInit+0x4c>)
 80005de:	6bda      	ldr	r2, [r3, #60]	; 0x3c
 80005e0:	2380      	movs	r3, #128	; 0x80
 80005e2:	055b      	lsls	r3, r3, #21
 80005e4:	4013      	ands	r3, r2
 80005e6:	603b      	str	r3, [r7, #0]
 80005e8:	683b      	ldr	r3, [r7, #0]

  /* System interrupt init*/

  /** Disable the internal Pull-Up in Dead Battery pins of UCPD peripheral
  */
  HAL_SYSCFG_StrobeDBattpinsConfig(SYSCFG_CFGR1_UCPD1_STROBE | SYSCFG_CFGR1_UCPD2_STROBE);
 80005ea:	23c0      	movs	r3, #192	; 0xc0
 80005ec:	00db      	lsls	r3, r3, #3
 80005ee:	0018      	movs	r0, r3
 80005f0:	f000 f9aa 	bl	8000948 <HAL_SYSCFG_StrobeDBattpinsConfig>

  /* USER CODE BEGIN MspInit 1 */

  /* USER CODE END MspInit 1 */
}
 80005f4:	46c0      	nop			; (mov r8, r8)
 80005f6:	46bd      	mov	sp, r7
 80005f8:	b002      	add	sp, #8
 80005fa:	bd80      	pop	{r7, pc}
 80005fc:	40021000 	.word	0x40021000

08000600 <HAL_ADC_MspInit>:
* This function configures the hardware resources used in this example
* @param hadc: ADC handle pointer
* @retval None
*/
void HAL_ADC_MspInit(ADC_HandleTypeDef* hadc)
{
 8000600:	b590      	push	{r4, r7, lr}
 8000602:	b09d      	sub	sp, #116	; 0x74
 8000604:	af00      	add	r7, sp, #0
 8000606:	6078      	str	r0, [r7, #4]
  GPIO_InitTypeDef GPIO_InitStruct = {0};
 8000608:	235c      	movs	r3, #92	; 0x5c
 800060a:	18fb      	adds	r3, r7, r3
 800060c:	0018      	movs	r0, r3
 800060e:	2314      	movs	r3, #20
 8000610:	001a      	movs	r2, r3
 8000612:	2100      	movs	r1, #0
 8000614:	f003 f9b2 	bl	800397c <memset>
  RCC_PeriphCLKInitTypeDef PeriphClkInit = {0};
 8000618:	2410      	movs	r4, #16
 800061a:	193b      	adds	r3, r7, r4
 800061c:	0018      	movs	r0, r3
 800061e:	234c      	movs	r3, #76	; 0x4c
 8000620:	001a      	movs	r2, r3
 8000622:	2100      	movs	r1, #0
 8000624:	f003 f9aa 	bl	800397c <memset>
  if(hadc->Instance==ADC1)
 8000628:	687b      	ldr	r3, [r7, #4]
 800062a:	681b      	ldr	r3, [r3, #0]
 800062c:	4a20      	ldr	r2, [pc, #128]	; (80006b0 <HAL_ADC_MspInit+0xb0>)
 800062e:	4293      	cmp	r3, r2
 8000630:	d139      	bne.n	80006a6 <HAL_ADC_MspInit+0xa6>
  /* USER CODE BEGIN ADC1_MspInit 0 */

  /* USER CODE END ADC1_MspInit 0 */
  /** Initializes the peripherals clocks
  */
    PeriphClkInit.PeriphClockSelection = RCC_PERIPHCLK_ADC;
 8000632:	193b      	adds	r3, r7, r4
 8000634:	2280      	movs	r2, #128	; 0x80
 8000636:	01d2      	lsls	r2, r2, #7
 8000638:	601a      	str	r2, [r3, #0]
    PeriphClkInit.AdcClockSelection = RCC_ADCCLKSOURCE_SYSCLK;
 800063a:	193b      	adds	r3, r7, r4
 800063c:	2200      	movs	r2, #0
 800063e:	631a      	str	r2, [r3, #48]	; 0x30
    if (HAL_RCCEx_PeriphCLKConfig(&PeriphClkInit) != HAL_OK)
 8000640:	193b      	adds	r3, r7, r4
 8000642:	0018      	movs	r0, r3
 8000644:	f001 ff4c 	bl	80024e0 <HAL_RCCEx_PeriphCLKConfig>
 8000648:	1e03      	subs	r3, r0, #0
 800064a:	d001      	beq.n	8000650 <HAL_ADC_MspInit+0x50>
    {
      Error_Handler();
 800064c:	f7ff ffaa 	bl	80005a4 <Error_Handler>
    }

    /* Peripheral clock enable */
    __HAL_RCC_ADC_CLK_ENABLE();
 8000650:	4b18      	ldr	r3, [pc, #96]	; (80006b4 <HAL_ADC_MspInit+0xb4>)
 8000652:	6c1a      	ldr	r2, [r3, #64]	; 0x40
 8000654:	4b17      	ldr	r3, [pc, #92]	; (80006b4 <HAL_ADC_MspInit+0xb4>)
 8000656:	2180      	movs	r1, #128	; 0x80
 8000658:	0349      	lsls	r1, r1, #13
 800065a:	430a      	orrs	r2, r1
 800065c:	641a      	str	r2, [r3, #64]	; 0x40
 800065e:	4b15      	ldr	r3, [pc, #84]	; (80006b4 <HAL_ADC_MspInit+0xb4>)
 8000660:	6c1a      	ldr	r2, [r3, #64]	; 0x40
 8000662:	2380      	movs	r3, #128	; 0x80
 8000664:	035b      	lsls	r3, r3, #13
 8000666:	4013      	ands	r3, r2
 8000668:	60fb      	str	r3, [r7, #12]
 800066a:	68fb      	ldr	r3, [r7, #12]

    __HAL_RCC_GPIOA_CLK_ENABLE();
 800066c:	4b11      	ldr	r3, [pc, #68]	; (80006b4 <HAL_ADC_MspInit+0xb4>)
 800066e:	6b5a      	ldr	r2, [r3, #52]	; 0x34
 8000670:	4b10      	ldr	r3, [pc, #64]	; (80006b4 <HAL_ADC_MspInit+0xb4>)
 8000672:	2101      	movs	r1, #1
 8000674:	430a      	orrs	r2, r1
 8000676:	635a      	str	r2, [r3, #52]	; 0x34
 8000678:	4b0e      	ldr	r3, [pc, #56]	; (80006b4 <HAL_ADC_MspInit+0xb4>)
 800067a:	6b5b      	ldr	r3, [r3, #52]	; 0x34
 800067c:	2201      	movs	r2, #1
 800067e:	4013      	ands	r3, r2
 8000680:	60bb      	str	r3, [r7, #8]
 8000682:	68bb      	ldr	r3, [r7, #8]
    /**ADC1 GPIO Configuration
    PA0     ------> ADC1_IN0
    */
    GPIO_InitStruct.Pin = GPIO_PIN_0;
 8000684:	215c      	movs	r1, #92	; 0x5c
 8000686:	187b      	adds	r3, r7, r1
 8000688:	2201      	movs	r2, #1
 800068a:	601a      	str	r2, [r3, #0]
    GPIO_InitStruct.Mode = GPIO_MODE_ANALOG;
 800068c:	187b      	adds	r3, r7, r1
 800068e:	2203      	movs	r2, #3
 8000690:	605a      	str	r2, [r3, #4]
    GPIO_InitStruct.Pull = GPIO_NOPULL;
 8000692:	187b      	adds	r3, r7, r1
 8000694:	2200      	movs	r2, #0
 8000696:	609a      	str	r2, [r3, #8]
    HAL_GPIO_Init(GPIOA, &GPIO_InitStruct);
 8000698:	187a      	adds	r2, r7, r1
 800069a:	23a0      	movs	r3, #160	; 0xa0
 800069c:	05db      	lsls	r3, r3, #23
 800069e:	0011      	movs	r1, r2
 80006a0:	0018      	movs	r0, r3
 80006a2:	f001 f863 	bl	800176c <HAL_GPIO_Init>
  /* USER CODE BEGIN ADC1_MspInit 1 */

  /* USER CODE END ADC1_MspInit 1 */
  }

}
 80006a6:	46c0      	nop			; (mov r8, r8)
 80006a8:	46bd      	mov	sp, r7
 80006aa:	b01d      	add	sp, #116	; 0x74
 80006ac:	bd90      	pop	{r4, r7, pc}
 80006ae:	46c0      	nop			; (mov r8, r8)
 80006b0:	40012400 	.word	0x40012400
 80006b4:	40021000 	.word	0x40021000

080006b8 <HAL_TIM_Base_MspInit>:
* This function configures the hardware resources used in this example
* @param htim_base: TIM_Base handle pointer
* @retval None
*/
void HAL_TIM_Base_MspInit(TIM_HandleTypeDef* htim_base)
{
 80006b8:	b580      	push	{r7, lr}
 80006ba:	b084      	sub	sp, #16
 80006bc:	af00      	add	r7, sp, #0
 80006be:	6078      	str	r0, [r7, #4]
  if(htim_base->Instance==TIM2)
 80006c0:	687b      	ldr	r3, [r7, #4]
 80006c2:	681a      	ldr	r2, [r3, #0]
 80006c4:	2380      	movs	r3, #128	; 0x80
 80006c6:	05db      	lsls	r3, r3, #23
 80006c8:	429a      	cmp	r2, r3
 80006ca:	d10b      	bne.n	80006e4 <HAL_TIM_Base_MspInit+0x2c>
  {
  /* USER CODE BEGIN TIM2_MspInit 0 */

  /* USER CODE END TIM2_MspInit 0 */
    /* Peripheral clock enable */
    __HAL_RCC_TIM2_CLK_ENABLE();
 80006cc:	4b07      	ldr	r3, [pc, #28]	; (80006ec <HAL_TIM_Base_MspInit+0x34>)
 80006ce:	6bda      	ldr	r2, [r3, #60]	; 0x3c
 80006d0:	4b06      	ldr	r3, [pc, #24]	; (80006ec <HAL_TIM_Base_MspInit+0x34>)
 80006d2:	2101      	movs	r1, #1
 80006d4:	430a      	orrs	r2, r1
 80006d6:	63da      	str	r2, [r3, #60]	; 0x3c
 80006d8:	4b04      	ldr	r3, [pc, #16]	; (80006ec <HAL_TIM_Base_MspInit+0x34>)
 80006da:	6bdb      	ldr	r3, [r3, #60]	; 0x3c
 80006dc:	2201      	movs	r2, #1
 80006de:	4013      	ands	r3, r2
 80006e0:	60fb      	str	r3, [r7, #12]
 80006e2:	68fb      	ldr	r3, [r7, #12]
  /* USER CODE BEGIN TIM2_MspInit 1 */

  /* USER CODE END TIM2_MspInit 1 */
  }

}
 80006e4:	46c0      	nop			; (mov r8, r8)
 80006e6:	46bd      	mov	sp, r7
 80006e8:	b004      	add	sp, #16
 80006ea:	bd80      	pop	{r7, pc}
 80006ec:	40021000 	.word	0x40021000

080006f0 <HAL_TIM_MspPostInit>:

void HAL_TIM_MspPostInit(TIM_HandleTypeDef* htim)
{
 80006f0:	b590      	push	{r4, r7, lr}
 80006f2:	b089      	sub	sp, #36	; 0x24
 80006f4:	af00      	add	r7, sp, #0
 80006f6:	6078      	str	r0, [r7, #4]
  GPIO_InitTypeDef GPIO_InitStruct = {0};
 80006f8:	240c      	movs	r4, #12
 80006fa:	193b      	adds	r3, r7, r4
 80006fc:	0018      	movs	r0, r3
 80006fe:	2314      	movs	r3, #20
 8000700:	001a      	movs	r2, r3
 8000702:	2100      	movs	r1, #0
 8000704:	f003 f93a 	bl	800397c <memset>
  if(htim->Instance==TIM2)
 8000708:	687b      	ldr	r3, [r7, #4]
 800070a:	681a      	ldr	r2, [r3, #0]
 800070c:	2380      	movs	r3, #128	; 0x80
 800070e:	05db      	lsls	r3, r3, #23
 8000710:	429a      	cmp	r2, r3
 8000712:	d122      	bne.n	800075a <HAL_TIM_MspPostInit+0x6a>
  {
  /* USER CODE BEGIN TIM2_MspPostInit 0 */

  /* USER CODE END TIM2_MspPostInit 0 */

    __HAL_RCC_GPIOA_CLK_ENABLE();
 8000714:	4b13      	ldr	r3, [pc, #76]	; (8000764 <HAL_TIM_MspPostInit+0x74>)
 8000716:	6b5a      	ldr	r2, [r3, #52]	; 0x34
 8000718:	4b12      	ldr	r3, [pc, #72]	; (8000764 <HAL_TIM_MspPostInit+0x74>)
 800071a:	2101      	movs	r1, #1
 800071c:	430a      	orrs	r2, r1
 800071e:	635a      	str	r2, [r3, #52]	; 0x34
 8000720:	4b10      	ldr	r3, [pc, #64]	; (8000764 <HAL_TIM_MspPostInit+0x74>)
 8000722:	6b5b      	ldr	r3, [r3, #52]	; 0x34
 8000724:	2201      	movs	r2, #1
 8000726:	4013      	ands	r3, r2
 8000728:	60bb      	str	r3, [r7, #8]
 800072a:	68bb      	ldr	r3, [r7, #8]
    /**TIM2 GPIO Configuration
    PA1     ------> TIM2_CH2
    */
    GPIO_InitStruct.Pin = GPIO_PIN_1;
 800072c:	0021      	movs	r1, r4
 800072e:	187b      	adds	r3, r7, r1
 8000730:	2202      	movs	r2, #2
 8000732:	601a      	str	r2, [r3, #0]
    GPIO_InitStruct.Mode = GPIO_MODE_AF_PP;
 8000734:	187b      	adds	r3, r7, r1
 8000736:	2202      	movs	r2, #2
 8000738:	605a      	str	r2, [r3, #4]
    GPIO_InitStruct.Pull = GPIO_NOPULL;
 800073a:	187b      	adds	r3, r7, r1
 800073c:	2200      	movs	r2, #0
 800073e:	609a      	str	r2, [r3, #8]
    GPIO_InitStruct.Speed = GPIO_SPEED_FREQ_LOW;
 8000740:	187b      	adds	r3, r7, r1
 8000742:	2200      	movs	r2, #0
 8000744:	60da      	str	r2, [r3, #12]
    GPIO_InitStruct.Alternate = GPIO_AF2_TIM2;
 8000746:	187b      	adds	r3, r7, r1
 8000748:	2202      	movs	r2, #2
 800074a:	611a      	str	r2, [r3, #16]
    HAL_GPIO_Init(GPIOA, &GPIO_InitStruct);
 800074c:	187a      	adds	r2, r7, r1
 800074e:	23a0      	movs	r3, #160	; 0xa0
 8000750:	05db      	lsls	r3, r3, #23
 8000752:	0011      	movs	r1, r2
 8000754:	0018      	movs	r0, r3
 8000756:	f001 f809 	bl	800176c <HAL_GPIO_Init>
  /* USER CODE BEGIN TIM2_MspPostInit 1 */

  /* USER CODE END TIM2_MspPostInit 1 */
  }

}
 800075a:	46c0      	nop			; (mov r8, r8)
 800075c:	46bd      	mov	sp, r7
 800075e:	b009      	add	sp, #36	; 0x24
 8000760:	bd90      	pop	{r4, r7, pc}
 8000762:	46c0      	nop			; (mov r8, r8)
 8000764:	40021000 	.word	0x40021000

08000768 <NMI_Handler>:
/******************************************************************************/
/**
  * @brief This function handles Non maskable interrupt.
  */
void NMI_Handler(void)
{
 8000768:	b580      	push	{r7, lr}
 800076a:	af00      	add	r7, sp, #0
  /* USER CODE BEGIN NonMaskableInt_IRQn 0 */

  /* USER CODE END NonMaskableInt_IRQn 0 */
  /* USER CODE BEGIN NonMaskableInt_IRQn 1 */
  while (1)
 800076c:	e7fe      	b.n	800076c <NMI_Handler+0x4>

0800076e <HardFault_Handler>:

/**
  * @brief This function handles Hard fault interrupt.
  */
void HardFault_Handler(void)
{
 800076e:	b580      	push	{r7, lr}
 8000770:	af00      	add	r7, sp, #0
  /* USER CODE BEGIN HardFault_IRQn 0 */

  /* USER CODE END HardFault_IRQn 0 */
  while (1)
 8000772:	e7fe      	b.n	8000772 <HardFault_Handler+0x4>

08000774 <SVC_Handler>:

/**
  * @brief This function handles System service call via SWI instruction.
  */
void SVC_Handler(void)
{
 8000774:	b580      	push	{r7, lr}
 8000776:	af00      	add	r7, sp, #0

  /* USER CODE END SVC_IRQn 0 */
  /* USER CODE BEGIN SVC_IRQn 1 */

  /* USER CODE END SVC_IRQn 1 */
}
 8000778:	46c0      	nop			; (mov r8, r8)
 800077a:	46bd      	mov	sp, r7
 800077c:	bd80      	pop	{r7, pc}

0800077e <PendSV_Handler>:

/**
  * @brief This function handles Pendable request for system service.
  */
void PendSV_Handler(void)
{
 800077e:	b580      	push	{r7, lr}
 8000780:	af00      	add	r7, sp, #0

  /* USER CODE END PendSV_IRQn 0 */
  /* USER CODE BEGIN PendSV_IRQn 1 */

  /* USER CODE END PendSV_IRQn 1 */
}
 8000782:	46c0      	nop			; (mov r8, r8)
 8000784:	46bd      	mov	sp, r7
 8000786:	bd80      	pop	{r7, pc}

08000788 <SysTick_Handler>:

/**
  * @brief This function handles System tick timer.
  */
void SysTick_Handler(void)
{
 8000788:	b580      	push	{r7, lr}
 800078a:	af00      	add	r7, sp, #0
  /* USER CODE BEGIN SysTick_IRQn 0 */

  /* USER CODE END SysTick_IRQn 0 */
  HAL_IncTick();
 800078c:	f000 f89c 	bl	80008c8 <HAL_IncTick>
  /* USER CODE BEGIN SysTick_IRQn 1 */

  /* USER CODE END SysTick_IRQn 1 */
}
 8000790:	46c0      	nop			; (mov r8, r8)
 8000792:	46bd      	mov	sp, r7
 8000794:	bd80      	pop	{r7, pc}

08000796 <SystemInit>:
  * @brief  Setup the microcontroller system.
  * @param  None
  * @retval None
  */
void SystemInit(void)
{
 8000796:	b580      	push	{r7, lr}
 8000798:	af00      	add	r7, sp, #0
  /* Configure the Vector Table location -------------------------------------*/
#if defined(USER_VECT_TAB_ADDRESS)
  SCB->VTOR = VECT_TAB_BASE_ADDRESS | VECT_TAB_OFFSET; /* Vector Table Relocation */
#endif /* USER_VECT_TAB_ADDRESS */
}
 800079a:	46c0      	nop			; (mov r8, r8)
 800079c:	46bd      	mov	sp, r7
 800079e:	bd80      	pop	{r7, pc}

080007a0 <Reset_Handler>:

  .section .text.Reset_Handler
  .weak Reset_Handler
  .type Reset_Handler, %function
Reset_Handler:
  ldr   r0, =_estack
 80007a0:	480d      	ldr	r0, [pc, #52]	; (80007d8 <LoopForever+0x2>)
  mov   sp, r0          /* set stack pointer */
 80007a2:	4685      	mov	sp, r0

/* Call the clock system initialization function.*/
  bl  SystemInit
 80007a4:	f7ff fff7 	bl	8000796 <SystemInit>

/* Copy the data segment initializers from flash to SRAM */
  ldr r0, =_sdata
 80007a8:	480c      	ldr	r0, [pc, #48]	; (80007dc <LoopForever+0x6>)
  ldr r1, =_edata
 80007aa:	490d      	ldr	r1, [pc, #52]	; (80007e0 <LoopForever+0xa>)
  ldr r2, =_sidata
 80007ac:	4a0d      	ldr	r2, [pc, #52]	; (80007e4 <LoopForever+0xe>)
  movs r3, #0
 80007ae:	2300      	movs	r3, #0
  b LoopCopyDataInit
 80007b0:	e002      	b.n	80007b8 <LoopCopyDataInit>

080007b2 <CopyDataInit>:

CopyDataInit:
  ldr r4, [r2, r3]
 80007b2:	58d4      	ldr	r4, [r2, r3]
  str r4, [r0, r3]
 80007b4:	50c4      	str	r4, [r0, r3]
  adds r3, r3, #4
 80007b6:	3304      	adds	r3, #4

080007b8 <LoopCopyDataInit>:

LoopCopyDataInit:
  adds r4, r0, r3
 80007b8:	18c4      	adds	r4, r0, r3
  cmp r4, r1
 80007ba:	428c      	cmp	r4, r1
  bcc CopyDataInit
 80007bc:	d3f9      	bcc.n	80007b2 <CopyDataInit>

/* Zero fill the bss segment. */
  ldr r2, =_sbss
 80007be:	4a0a      	ldr	r2, [pc, #40]	; (80007e8 <LoopForever+0x12>)
  ldr r4, =_ebss
 80007c0:	4c0a      	ldr	r4, [pc, #40]	; (80007ec <LoopForever+0x16>)
  movs r3, #0
 80007c2:	2300      	movs	r3, #0
  b LoopFillZerobss
 80007c4:	e001      	b.n	80007ca <LoopFillZerobss>

080007c6 <FillZerobss>:

FillZerobss:
  str  r3, [r2]
 80007c6:	6013      	str	r3, [r2, #0]
  adds r2, r2, #4
 80007c8:	3204      	adds	r2, #4

080007ca <LoopFillZerobss>:

LoopFillZerobss:
  cmp r2, r4
 80007ca:	42a2      	cmp	r2, r4
  bcc FillZerobss
 80007cc:	d3fb      	bcc.n	80007c6 <FillZerobss>

/* Call static constructors */
  bl __libc_init_array
 80007ce:	f003 f8b1 	bl	8003934 <__libc_init_array>
/* Call the application s entry point.*/
  bl main
 80007d2:	f7ff fd23 	bl	800021c <main>

080007d6 <LoopForever>:

LoopForever:
  b LoopForever
 80007d6:	e7fe      	b.n	80007d6 <LoopForever>
  ldr   r0, =_estack
 80007d8:	20024000 	.word	0x20024000
  ldr r0, =_sdata
 80007dc:	20000000 	.word	0x20000000
  ldr r1, =_edata
 80007e0:	2000000c 	.word	0x2000000c
  ldr r2, =_sidata
 80007e4:	08003a40 	.word	0x08003a40
  ldr r2, =_sbss
 80007e8:	2000000c 	.word	0x2000000c
  ldr r4, =_ebss
 80007ec:	200000e0 	.word	0x200000e0

080007f0 <ADC1_COMP_IRQHandler>:
 * @retval None
*/
  .section .text.Default_Handler,"ax",%progbits
Default_Handler:
Infinite_Loop:
  b Infinite_Loop
 80007f0:	e7fe      	b.n	80007f0 <ADC1_COMP_IRQHandler>
	...

080007f4 <HAL_Init>:
  *         each 1ms in the SysTick_Handler() interrupt handler.
  *
  * @retval HAL status
  */
HAL_StatusTypeDef HAL_Init(void)
{
 80007f4:	b580      	push	{r7, lr}
 80007f6:	b082      	sub	sp, #8
 80007f8:	af00      	add	r7, sp, #0
  HAL_StatusTypeDef  status = HAL_OK;
 80007fa:	1dfb      	adds	r3, r7, #7
 80007fc:	2200      	movs	r2, #0
 80007fe:	701a      	strb	r2, [r3, #0]
#if (INSTRUCTION_CACHE_ENABLE == 0U)
  __HAL_FLASH_INSTRUCTION_CACHE_DISABLE();
#endif /* INSTRUCTION_CACHE_ENABLE */

#if (PREFETCH_ENABLE != 0U)
  __HAL_FLASH_PREFETCH_BUFFER_ENABLE();
 8000800:	4b0b      	ldr	r3, [pc, #44]	; (8000830 <HAL_Init+0x3c>)
 8000802:	681a      	ldr	r2, [r3, #0]
 8000804:	4b0a      	ldr	r3, [pc, #40]	; (8000830 <HAL_Init+0x3c>)
 8000806:	2180      	movs	r1, #128	; 0x80
 8000808:	0049      	lsls	r1, r1, #1
 800080a:	430a      	orrs	r2, r1
 800080c:	601a      	str	r2, [r3, #0]
#endif /* PREFETCH_ENABLE */

  /* Use SysTick as time base source and configure 1ms tick (default clock after Reset is HSI) */
  if (HAL_InitTick(TICK_INT_PRIORITY) != HAL_OK)
 800080e:	2003      	movs	r0, #3
 8000810:	f000 f810 	bl	8000834 <HAL_InitTick>
 8000814:	1e03      	subs	r3, r0, #0
 8000816:	d003      	beq.n	8000820 <HAL_Init+0x2c>
  {
    status = HAL_ERROR;
 8000818:	1dfb      	adds	r3, r7, #7
 800081a:	2201      	movs	r2, #1
 800081c:	701a      	strb	r2, [r3, #0]
 800081e:	e001      	b.n	8000824 <HAL_Init+0x30>
  }
  else
  {
  /* Init the low level hardware */
  HAL_MspInit();
 8000820:	f7ff fec6 	bl	80005b0 <HAL_MspInit>
  }

  /* Return function status */
  return status;
 8000824:	1dfb      	adds	r3, r7, #7
 8000826:	781b      	ldrb	r3, [r3, #0]
}
 8000828:	0018      	movs	r0, r3
 800082a:	46bd      	mov	sp, r7
 800082c:	b002      	add	sp, #8
 800082e:	bd80      	pop	{r7, pc}
 8000830:	40022000 	.word	0x40022000

08000834 <HAL_InitTick>:
  *       implementation  in user file.
  * @param TickPriority Tick interrupt priority.
  * @retval HAL status
  */
__weak HAL_StatusTypeDef HAL_InitTick(uint32_t TickPriority)
{
 8000834:	b590      	push	{r4, r7, lr}
 8000836:	b085      	sub	sp, #20
 8000838:	af00      	add	r7, sp, #0
 800083a:	6078      	str	r0, [r7, #4]
  HAL_StatusTypeDef  status = HAL_OK;
 800083c:	230f      	movs	r3, #15
 800083e:	18fb      	adds	r3, r7, r3
 8000840:	2200      	movs	r2, #0
 8000842:	701a      	strb	r2, [r3, #0]

  /* Check uwTickFreq for MisraC 2012 (even if uwTickFreq is a enum type that doesn't take the value zero)*/ 
  if ((uint32_t)uwTickFreq != 0U)
 8000844:	4b1d      	ldr	r3, [pc, #116]	; (80008bc <HAL_InitTick+0x88>)
 8000846:	781b      	ldrb	r3, [r3, #0]
 8000848:	2b00      	cmp	r3, #0
 800084a:	d02b      	beq.n	80008a4 <HAL_InitTick+0x70>
  {
    /*Configure the SysTick to have interrupt in 1ms time basis*/
    if (HAL_SYSTICK_Config(SystemCoreClock / (1000U /(uint32_t)uwTickFreq)) == 0U)
 800084c:	4b1c      	ldr	r3, [pc, #112]	; (80008c0 <HAL_InitTick+0x8c>)
 800084e:	681c      	ldr	r4, [r3, #0]
 8000850:	4b1a      	ldr	r3, [pc, #104]	; (80008bc <HAL_InitTick+0x88>)
 8000852:	781b      	ldrb	r3, [r3, #0]
 8000854:	0019      	movs	r1, r3
 8000856:	23fa      	movs	r3, #250	; 0xfa
 8000858:	0098      	lsls	r0, r3, #2
 800085a:	f7ff fc53 	bl	8000104 <__udivsi3>
 800085e:	0003      	movs	r3, r0
 8000860:	0019      	movs	r1, r3
 8000862:	0020      	movs	r0, r4
 8000864:	f7ff fc4e 	bl	8000104 <__udivsi3>
 8000868:	0003      	movs	r3, r0
 800086a:	0018      	movs	r0, r3
 800086c:	f000 ff71 	bl	8001752 <HAL_SYSTICK_Config>
 8000870:	1e03      	subs	r3, r0, #0
 8000872:	d112      	bne.n	800089a <HAL_InitTick+0x66>
    {
      /* Configure the SysTick IRQ priority */
      if (TickPriority < (1UL << __NVIC_PRIO_BITS))
 8000874:	687b      	ldr	r3, [r7, #4]
 8000876:	2b03      	cmp	r3, #3
 8000878:	d80a      	bhi.n	8000890 <HAL_InitTick+0x5c>
      {
        HAL_NVIC_SetPriority(SysTick_IRQn, TickPriority, 0U);
 800087a:	6879      	ldr	r1, [r7, #4]
 800087c:	2301      	movs	r3, #1
 800087e:	425b      	negs	r3, r3
 8000880:	2200      	movs	r2, #0
 8000882:	0018      	movs	r0, r3
 8000884:	f000 ff50 	bl	8001728 <HAL_NVIC_SetPriority>
        uwTickPrio = TickPriority;
 8000888:	4b0e      	ldr	r3, [pc, #56]	; (80008c4 <HAL_InitTick+0x90>)
 800088a:	687a      	ldr	r2, [r7, #4]
 800088c:	601a      	str	r2, [r3, #0]
 800088e:	e00d      	b.n	80008ac <HAL_InitTick+0x78>
      }
      else
      {
        status = HAL_ERROR;
 8000890:	230f      	movs	r3, #15
 8000892:	18fb      	adds	r3, r7, r3
 8000894:	2201      	movs	r2, #1
 8000896:	701a      	strb	r2, [r3, #0]
 8000898:	e008      	b.n	80008ac <HAL_InitTick+0x78>
      }
    }
    else
    {
      status = HAL_ERROR;
 800089a:	230f      	movs	r3, #15
 800089c:	18fb      	adds	r3, r7, r3
 800089e:	2201      	movs	r2, #1
 80008a0:	701a      	strb	r2, [r3, #0]
 80008a2:	e003      	b.n	80008ac <HAL_InitTick+0x78>
    }
  }
  else
  {
    status = HAL_ERROR;
 80008a4:	230f      	movs	r3, #15
 80008a6:	18fb      	adds	r3, r7, r3
 80008a8:	2201      	movs	r2, #1
 80008aa:	701a      	strb	r2, [r3, #0]
  }

  /* Return function status */
  return status;
 80008ac:	230f      	movs	r3, #15
 80008ae:	18fb      	adds	r3, r7, r3
 80008b0:	781b      	ldrb	r3, [r3, #0]
}
 80008b2:	0018      	movs	r0, r3
 80008b4:	46bd      	mov	sp, r7
 80008b6:	b005      	add	sp, #20
 80008b8:	bd90      	pop	{r4, r7, pc}
 80008ba:	46c0      	nop			; (mov r8, r8)
 80008bc:	20000008 	.word	0x20000008
 80008c0:	20000000 	.word	0x20000000
 80008c4:	20000004 	.word	0x20000004

080008c8 <HAL_IncTick>:
  * @note This function is declared as __weak to be overwritten in case of other
  *      implementations in user file.
  * @retval None
  */
__weak void HAL_IncTick(void)
{
 80008c8:	b580      	push	{r7, lr}
 80008ca:	af00      	add	r7, sp, #0
  uwTick += (uint32_t)uwTickFreq;
 80008cc:	4b05      	ldr	r3, [pc, #20]	; (80008e4 <HAL_IncTick+0x1c>)
 80008ce:	781b      	ldrb	r3, [r3, #0]
 80008d0:	001a      	movs	r2, r3
 80008d2:	4b05      	ldr	r3, [pc, #20]	; (80008e8 <HAL_IncTick+0x20>)
 80008d4:	681b      	ldr	r3, [r3, #0]
 80008d6:	18d2      	adds	r2, r2, r3
 80008d8:	4b03      	ldr	r3, [pc, #12]	; (80008e8 <HAL_IncTick+0x20>)
 80008da:	601a      	str	r2, [r3, #0]
}
 80008dc:	46c0      	nop			; (mov r8, r8)
 80008de:	46bd      	mov	sp, r7
 80008e0:	bd80      	pop	{r7, pc}
 80008e2:	46c0      	nop			; (mov r8, r8)
 80008e4:	20000008 	.word	0x20000008
 80008e8:	200000dc 	.word	0x200000dc

080008ec <HAL_GetTick>:
  * @note This function is declared as __weak to be overwritten in case of other
  *       implementations in user file.
  * @retval tick value
  */
__weak uint32_t HAL_GetTick(void)
{
 80008ec:	b580      	push	{r7, lr}
 80008ee:	af00      	add	r7, sp, #0
  return uwTick;
 80008f0:	4b02      	ldr	r3, [pc, #8]	; (80008fc <HAL_GetTick+0x10>)
 80008f2:	681b      	ldr	r3, [r3, #0]
}
 80008f4:	0018      	movs	r0, r3
 80008f6:	46bd      	mov	sp, r7
 80008f8:	bd80      	pop	{r7, pc}
 80008fa:	46c0      	nop			; (mov r8, r8)
 80008fc:	200000dc 	.word	0x200000dc

08000900 <HAL_Delay>:
  *       implementations in user file.
  * @param Delay  specifies the delay time length, in milliseconds.
  * @retval None
  */
__weak void HAL_Delay(uint32_t Delay)
{
 8000900:	b580      	push	{r7, lr}
 8000902:	b084      	sub	sp, #16
 8000904:	af00      	add	r7, sp, #0
 8000906:	6078      	str	r0, [r7, #4]
  uint32_t tickstart = HAL_GetTick();
 8000908:	f7ff fff0 	bl	80008ec <HAL_GetTick>
 800090c:	0003      	movs	r3, r0
 800090e:	60bb      	str	r3, [r7, #8]
  uint32_t wait = Delay;
 8000910:	687b      	ldr	r3, [r7, #4]
 8000912:	60fb      	str	r3, [r7, #12]

  /* Add a freq to guarantee minimum wait */
  if (wait < HAL_MAX_DELAY)
 8000914:	68fb      	ldr	r3, [r7, #12]
 8000916:	3301      	adds	r3, #1
 8000918:	d005      	beq.n	8000926 <HAL_Delay+0x26>
  {
    wait += (uint32_t)(uwTickFreq);
 800091a:	4b0a      	ldr	r3, [pc, #40]	; (8000944 <HAL_Delay+0x44>)
 800091c:	781b      	ldrb	r3, [r3, #0]
 800091e:	001a      	movs	r2, r3
 8000920:	68fb      	ldr	r3, [r7, #12]
 8000922:	189b      	adds	r3, r3, r2
 8000924:	60fb      	str	r3, [r7, #12]
  }

  while ((HAL_GetTick() - tickstart) < wait)
 8000926:	46c0      	nop			; (mov r8, r8)
 8000928:	f7ff ffe0 	bl	80008ec <HAL_GetTick>
 800092c:	0002      	movs	r2, r0
 800092e:	68bb      	ldr	r3, [r7, #8]
 8000930:	1ad3      	subs	r3, r2, r3
 8000932:	68fa      	ldr	r2, [r7, #12]
 8000934:	429a      	cmp	r2, r3
 8000936:	d8f7      	bhi.n	8000928 <HAL_Delay+0x28>
  {
  }
}
 8000938:	46c0      	nop			; (mov r8, r8)
 800093a:	46c0      	nop			; (mov r8, r8)
 800093c:	46bd      	mov	sp, r7
 800093e:	b004      	add	sp, #16
 8000940:	bd80      	pop	{r7, pc}
 8000942:	46c0      	nop			; (mov r8, r8)
 8000944:	20000008 	.word	0x20000008

08000948 <HAL_SYSCFG_StrobeDBattpinsConfig>:
  *         @arg @ref SYSCFG_UCPD1_STROBE
  *         @arg @ref SYSCFG_UCPD2_STROBE
  * @retval None
  */
void HAL_SYSCFG_StrobeDBattpinsConfig(uint32_t ConfigDeadBattery)
{
 8000948:	b580      	push	{r7, lr}
 800094a:	b082      	sub	sp, #8
 800094c:	af00      	add	r7, sp, #0
 800094e:	6078      	str	r0, [r7, #4]
  assert_param(IS_SYSCFG_DBATT_CONFIG(ConfigDeadBattery));

  /* Change strobe configuration of GPIO depending on UCPDx dead battery settings */
  MODIFY_REG(SYSCFG->CFGR1, (SYSCFG_CFGR1_UCPD1_STROBE | SYSCFG_CFGR1_UCPD2_STROBE), ConfigDeadBattery);
 8000950:	4b06      	ldr	r3, [pc, #24]	; (800096c <HAL_SYSCFG_StrobeDBattpinsConfig+0x24>)
 8000952:	681b      	ldr	r3, [r3, #0]
 8000954:	4a06      	ldr	r2, [pc, #24]	; (8000970 <HAL_SYSCFG_StrobeDBattpinsConfig+0x28>)
 8000956:	4013      	ands	r3, r2
 8000958:	0019      	movs	r1, r3
 800095a:	4b04      	ldr	r3, [pc, #16]	; (800096c <HAL_SYSCFG_StrobeDBattpinsConfig+0x24>)
 800095c:	687a      	ldr	r2, [r7, #4]
 800095e:	430a      	orrs	r2, r1
 8000960:	601a      	str	r2, [r3, #0]
}
 8000962:	46c0      	nop			; (mov r8, r8)
 8000964:	46bd      	mov	sp, r7
 8000966:	b002      	add	sp, #8
 8000968:	bd80      	pop	{r7, pc}
 800096a:	46c0      	nop			; (mov r8, r8)
 800096c:	40010000 	.word	0x40010000
 8000970:	fffff9ff 	.word	0xfffff9ff

08000974 <LL_ADC_SetCommonPathInternalCh>:
  *         @arg @ref LL_ADC_PATH_INTERNAL_TEMPSENSOR
  *         @arg @ref LL_ADC_PATH_INTERNAL_VBAT
  * @retval None
  */
__STATIC_INLINE void LL_ADC_SetCommonPathInternalCh(ADC_Common_TypeDef *ADCxy_COMMON, uint32_t PathInternal)
{
 8000974:	b580      	push	{r7, lr}
 8000976:	b082      	sub	sp, #8
 8000978:	af00      	add	r7, sp, #0
 800097a:	6078      	str	r0, [r7, #4]
 800097c:	6039      	str	r1, [r7, #0]
  MODIFY_REG(ADCxy_COMMON->CCR, ADC_CCR_VREFEN | ADC_CCR_TSEN | ADC_CCR_VBATEN, PathInternal);
 800097e:	687b      	ldr	r3, [r7, #4]
 8000980:	681b      	ldr	r3, [r3, #0]
 8000982:	4a05      	ldr	r2, [pc, #20]	; (8000998 <LL_ADC_SetCommonPathInternalCh+0x24>)
 8000984:	401a      	ands	r2, r3
 8000986:	683b      	ldr	r3, [r7, #0]
 8000988:	431a      	orrs	r2, r3
 800098a:	687b      	ldr	r3, [r7, #4]
 800098c:	601a      	str	r2, [r3, #0]
}
 800098e:	46c0      	nop			; (mov r8, r8)
 8000990:	46bd      	mov	sp, r7
 8000992:	b002      	add	sp, #8
 8000994:	bd80      	pop	{r7, pc}
 8000996:	46c0      	nop			; (mov r8, r8)
 8000998:	fe3fffff 	.word	0xfe3fffff

0800099c <LL_ADC_GetCommonPathInternalCh>:
  *         @arg @ref LL_ADC_PATH_INTERNAL_VREFINT
  *         @arg @ref LL_ADC_PATH_INTERNAL_TEMPSENSOR
  *         @arg @ref LL_ADC_PATH_INTERNAL_VBAT
  */
__STATIC_INLINE uint32_t LL_ADC_GetCommonPathInternalCh(ADC_Common_TypeDef *ADCxy_COMMON)
{
 800099c:	b580      	push	{r7, lr}
 800099e:	b082      	sub	sp, #8
 80009a0:	af00      	add	r7, sp, #0
 80009a2:	6078      	str	r0, [r7, #4]
  return (uint32_t)(READ_BIT(ADCxy_COMMON->CCR, ADC_CCR_VREFEN | ADC_CCR_TSEN | ADC_CCR_VBATEN));
 80009a4:	687b      	ldr	r3, [r7, #4]
 80009a6:	681a      	ldr	r2, [r3, #0]
 80009a8:	23e0      	movs	r3, #224	; 0xe0
 80009aa:	045b      	lsls	r3, r3, #17
 80009ac:	4013      	ands	r3, r2
}
 80009ae:	0018      	movs	r0, r3
 80009b0:	46bd      	mov	sp, r7
 80009b2:	b002      	add	sp, #8
 80009b4:	bd80      	pop	{r7, pc}

080009b6 <LL_ADC_SetSamplingTimeCommonChannels>:
  *         @arg @ref LL_ADC_SAMPLINGTIME_160CYCLES_5
  * @retval None
  */
__STATIC_INLINE void LL_ADC_SetSamplingTimeCommonChannels(ADC_TypeDef *ADCx, uint32_t SamplingTimeY,
                                                          uint32_t SamplingTime)
{
 80009b6:	b580      	push	{r7, lr}
 80009b8:	b084      	sub	sp, #16
 80009ba:	af00      	add	r7, sp, #0
 80009bc:	60f8      	str	r0, [r7, #12]
 80009be:	60b9      	str	r1, [r7, #8]
 80009c0:	607a      	str	r2, [r7, #4]
  MODIFY_REG(ADCx->SMPR,
 80009c2:	68fb      	ldr	r3, [r7, #12]
 80009c4:	695b      	ldr	r3, [r3, #20]
 80009c6:	68ba      	ldr	r2, [r7, #8]
 80009c8:	2104      	movs	r1, #4
 80009ca:	400a      	ands	r2, r1
 80009cc:	2107      	movs	r1, #7
 80009ce:	4091      	lsls	r1, r2
 80009d0:	000a      	movs	r2, r1
 80009d2:	43d2      	mvns	r2, r2
 80009d4:	401a      	ands	r2, r3
 80009d6:	68bb      	ldr	r3, [r7, #8]
 80009d8:	2104      	movs	r1, #4
 80009da:	400b      	ands	r3, r1
 80009dc:	6879      	ldr	r1, [r7, #4]
 80009de:	4099      	lsls	r1, r3
 80009e0:	000b      	movs	r3, r1
 80009e2:	431a      	orrs	r2, r3
 80009e4:	68fb      	ldr	r3, [r7, #12]
 80009e6:	615a      	str	r2, [r3, #20]
             ADC_SMPR_SMP1 << (SamplingTimeY & ADC_SAMPLING_TIME_SMP_SHIFT_MASK),
             SamplingTime << (SamplingTimeY & ADC_SAMPLING_TIME_SMP_SHIFT_MASK));
}
 80009e8:	46c0      	nop			; (mov r8, r8)
 80009ea:	46bd      	mov	sp, r7
 80009ec:	b004      	add	sp, #16
 80009ee:	bd80      	pop	{r7, pc}

080009f0 <LL_ADC_REG_IsTriggerSourceSWStart>:
  * @param  ADCx ADC instance
  * @retval Value "0" if trigger source external trigger
  *         Value "1" if trigger source SW start.
  */
__STATIC_INLINE uint32_t LL_ADC_REG_IsTriggerSourceSWStart(ADC_TypeDef *ADCx)
{
 80009f0:	b580      	push	{r7, lr}
 80009f2:	b082      	sub	sp, #8
 80009f4:	af00      	add	r7, sp, #0
 80009f6:	6078      	str	r0, [r7, #4]
  return ((READ_BIT(ADCx->CFGR1, ADC_CFGR1_EXTEN) == (LL_ADC_REG_TRIG_SOFTWARE & ADC_CFGR1_EXTEN)) ? 1UL : 0UL);
 80009f8:	687b      	ldr	r3, [r7, #4]
 80009fa:	68da      	ldr	r2, [r3, #12]
 80009fc:	23c0      	movs	r3, #192	; 0xc0
 80009fe:	011b      	lsls	r3, r3, #4
 8000a00:	4013      	ands	r3, r2
 8000a02:	d101      	bne.n	8000a08 <LL_ADC_REG_IsTriggerSourceSWStart+0x18>
 8000a04:	2301      	movs	r3, #1
 8000a06:	e000      	b.n	8000a0a <LL_ADC_REG_IsTriggerSourceSWStart+0x1a>
 8000a08:	2300      	movs	r3, #0
}
 8000a0a:	0018      	movs	r0, r3
 8000a0c:	46bd      	mov	sp, r7
 8000a0e:	b002      	add	sp, #8
 8000a10:	bd80      	pop	{r7, pc}

08000a12 <LL_ADC_REG_SetSequencerRanks>:
  *             only if sequencer is set in mode "not fully configurable",
  *             refer to function @ref LL_ADC_REG_SetSequencerConfigurable().
  * @retval None
  */
__STATIC_INLINE void LL_ADC_REG_SetSequencerRanks(ADC_TypeDef *ADCx, uint32_t Rank, uint32_t Channel)
{
 8000a12:	b580      	push	{r7, lr}
 8000a14:	b084      	sub	sp, #16
 8000a16:	af00      	add	r7, sp, #0
 8000a18:	60f8      	str	r0, [r7, #12]
 8000a1a:	60b9      	str	r1, [r7, #8]
 8000a1c:	607a      	str	r2, [r7, #4]
  /* Set bits with content of parameter "Channel" with bits position          */
  /* in register depending on parameter "Rank".                               */
  /* Parameters "Rank" and "Channel" are used with masks because containing   */
  /* other bits reserved for other purpose.                                   */
  MODIFY_REG(ADCx->CHSELR,
 8000a1e:	68fb      	ldr	r3, [r7, #12]
 8000a20:	6a9b      	ldr	r3, [r3, #40]	; 0x28
 8000a22:	68ba      	ldr	r2, [r7, #8]
 8000a24:	211f      	movs	r1, #31
 8000a26:	400a      	ands	r2, r1
 8000a28:	210f      	movs	r1, #15
 8000a2a:	4091      	lsls	r1, r2
 8000a2c:	000a      	movs	r2, r1
 8000a2e:	43d2      	mvns	r2, r2
 8000a30:	401a      	ands	r2, r3
 8000a32:	687b      	ldr	r3, [r7, #4]
 8000a34:	0e9b      	lsrs	r3, r3, #26
 8000a36:	210f      	movs	r1, #15
 8000a38:	4019      	ands	r1, r3
 8000a3a:	68bb      	ldr	r3, [r7, #8]
 8000a3c:	201f      	movs	r0, #31
 8000a3e:	4003      	ands	r3, r0
 8000a40:	4099      	lsls	r1, r3
 8000a42:	000b      	movs	r3, r1
 8000a44:	431a      	orrs	r2, r3
 8000a46:	68fb      	ldr	r3, [r7, #12]
 8000a48:	629a      	str	r2, [r3, #40]	; 0x28
             ADC_CHSELR_SQ1 << (Rank & ADC_REG_RANK_ID_SQRX_MASK),
             ((Channel & ADC_CHANNEL_ID_NUMBER_MASK_SEQ) >> ADC_CHANNEL_ID_NUMBER_BITOFFSET_POS) << (Rank & ADC_REG_RANK_ID_SQRX_MASK));
}
 8000a4a:	46c0      	nop			; (mov r8, r8)
 8000a4c:	46bd      	mov	sp, r7
 8000a4e:	b004      	add	sp, #16
 8000a50:	bd80      	pop	{r7, pc}

08000a52 <LL_ADC_REG_SetSequencerChAdd>:
  *             only if sequencer is set in mode "not fully configurable",
  *             refer to function @ref LL_ADC_REG_SetSequencerConfigurable().
  * @retval None
  */
__STATIC_INLINE void LL_ADC_REG_SetSequencerChAdd(ADC_TypeDef *ADCx, uint32_t Channel)
{
 8000a52:	b580      	push	{r7, lr}
 8000a54:	b082      	sub	sp, #8
 8000a56:	af00      	add	r7, sp, #0
 8000a58:	6078      	str	r0, [r7, #4]
 8000a5a:	6039      	str	r1, [r7, #0]
  /* Parameter "Channel" is used with masks because containing                */
  /* other bits reserved for other purpose.                                   */
  SET_BIT(ADCx->CHSELR, (Channel & ADC_CHANNEL_ID_BITFIELD_MASK));
 8000a5c:	687b      	ldr	r3, [r7, #4]
 8000a5e:	6a9a      	ldr	r2, [r3, #40]	; 0x28
 8000a60:	683b      	ldr	r3, [r7, #0]
 8000a62:	035b      	lsls	r3, r3, #13
 8000a64:	0b5b      	lsrs	r3, r3, #13
 8000a66:	431a      	orrs	r2, r3
 8000a68:	687b      	ldr	r3, [r7, #4]
 8000a6a:	629a      	str	r2, [r3, #40]	; 0x28
}
 8000a6c:	46c0      	nop			; (mov r8, r8)
 8000a6e:	46bd      	mov	sp, r7
 8000a70:	b002      	add	sp, #8
 8000a72:	bd80      	pop	{r7, pc}

08000a74 <LL_ADC_REG_SetSequencerChRem>:
  *             only if sequencer is set in mode "not fully configurable",
  *             refer to function @ref LL_ADC_REG_SetSequencerConfigurable().
  * @retval None
  */
__STATIC_INLINE void LL_ADC_REG_SetSequencerChRem(ADC_TypeDef *ADCx, uint32_t Channel)
{
 8000a74:	b580      	push	{r7, lr}
 8000a76:	b082      	sub	sp, #8
 8000a78:	af00      	add	r7, sp, #0
 8000a7a:	6078      	str	r0, [r7, #4]
 8000a7c:	6039      	str	r1, [r7, #0]
  /* Parameter "Channel" is used with masks because containing                */
  /* other bits reserved for other purpose.                                   */
  CLEAR_BIT(ADCx->CHSELR, (Channel & ADC_CHANNEL_ID_BITFIELD_MASK));
 8000a7e:	687b      	ldr	r3, [r7, #4]
 8000a80:	6a9b      	ldr	r3, [r3, #40]	; 0x28
 8000a82:	683a      	ldr	r2, [r7, #0]
 8000a84:	0352      	lsls	r2, r2, #13
 8000a86:	0b52      	lsrs	r2, r2, #13
 8000a88:	43d2      	mvns	r2, r2
 8000a8a:	401a      	ands	r2, r3
 8000a8c:	687b      	ldr	r3, [r7, #4]
 8000a8e:	629a      	str	r2, [r3, #40]	; 0x28
}
 8000a90:	46c0      	nop			; (mov r8, r8)
 8000a92:	46bd      	mov	sp, r7
 8000a94:	b002      	add	sp, #8
 8000a96:	bd80      	pop	{r7, pc}

08000a98 <LL_ADC_SetChannelSamplingTime>:
  *         @arg @ref LL_ADC_SAMPLINGTIME_COMMON_1
  *         @arg @ref LL_ADC_SAMPLINGTIME_COMMON_2
  * @retval None
  */
__STATIC_INLINE void LL_ADC_SetChannelSamplingTime(ADC_TypeDef *ADCx, uint32_t Channel, uint32_t SamplingTimeY)
{
 8000a98:	b580      	push	{r7, lr}
 8000a9a:	b084      	sub	sp, #16
 8000a9c:	af00      	add	r7, sp, #0
 8000a9e:	60f8      	str	r0, [r7, #12]
 8000aa0:	60b9      	str	r1, [r7, #8]
 8000aa2:	607a      	str	r2, [r7, #4]
  /* Parameter "Channel" is used with masks because containing                */
  /* other bits reserved for other purpose.                                   */
  MODIFY_REG(ADCx->SMPR,
 8000aa4:	68fb      	ldr	r3, [r7, #12]
 8000aa6:	695b      	ldr	r3, [r3, #20]
 8000aa8:	68ba      	ldr	r2, [r7, #8]
 8000aaa:	0212      	lsls	r2, r2, #8
 8000aac:	43d2      	mvns	r2, r2
 8000aae:	401a      	ands	r2, r3
 8000ab0:	68bb      	ldr	r3, [r7, #8]
 8000ab2:	021b      	lsls	r3, r3, #8
 8000ab4:	6879      	ldr	r1, [r7, #4]
 8000ab6:	400b      	ands	r3, r1
 8000ab8:	4904      	ldr	r1, [pc, #16]	; (8000acc <LL_ADC_SetChannelSamplingTime+0x34>)
 8000aba:	400b      	ands	r3, r1
 8000abc:	431a      	orrs	r2, r3
 8000abe:	68fb      	ldr	r3, [r7, #12]
 8000ac0:	615a      	str	r2, [r3, #20]
             (Channel << ADC_SMPR_SMPSEL0_BITOFFSET_POS),
             (Channel << ADC_SMPR_SMPSEL0_BITOFFSET_POS) & (SamplingTimeY & ADC_SAMPLING_TIME_CH_MASK)
            );
}
 8000ac2:	46c0      	nop			; (mov r8, r8)
 8000ac4:	46bd      	mov	sp, r7
 8000ac6:	b004      	add	sp, #16
 8000ac8:	bd80      	pop	{r7, pc}
 8000aca:	46c0      	nop			; (mov r8, r8)
 8000acc:	07ffff00 	.word	0x07ffff00

08000ad0 <LL_ADC_EnableInternalRegulator>:
  * @rmtoll CR       ADVREGEN       LL_ADC_EnableInternalRegulator
  * @param  ADCx ADC instance
  * @retval None
  */
__STATIC_INLINE void LL_ADC_EnableInternalRegulator(ADC_TypeDef *ADCx)
{
 8000ad0:	b580      	push	{r7, lr}
 8000ad2:	b082      	sub	sp, #8
 8000ad4:	af00      	add	r7, sp, #0
 8000ad6:	6078      	str	r0, [r7, #4]
  /* Note: Write register with some additional bits forced to state reset     */
  /*       instead of modifying only the selected bit for this function,      */
  /*       to not interfere with bits with HW property "rs".                  */
  MODIFY_REG(ADCx->CR,
 8000ad8:	687b      	ldr	r3, [r7, #4]
 8000ada:	689b      	ldr	r3, [r3, #8]
 8000adc:	4a05      	ldr	r2, [pc, #20]	; (8000af4 <LL_ADC_EnableInternalRegulator+0x24>)
 8000ade:	4013      	ands	r3, r2
 8000ae0:	2280      	movs	r2, #128	; 0x80
 8000ae2:	0552      	lsls	r2, r2, #21
 8000ae4:	431a      	orrs	r2, r3
 8000ae6:	687b      	ldr	r3, [r7, #4]
 8000ae8:	609a      	str	r2, [r3, #8]
             ADC_CR_BITS_PROPERTY_RS,
             ADC_CR_ADVREGEN);
}
 8000aea:	46c0      	nop			; (mov r8, r8)
 8000aec:	46bd      	mov	sp, r7
 8000aee:	b002      	add	sp, #8
 8000af0:	bd80      	pop	{r7, pc}
 8000af2:	46c0      	nop			; (mov r8, r8)
 8000af4:	6fffffe8 	.word	0x6fffffe8

08000af8 <LL_ADC_IsInternalRegulatorEnabled>:
  * @rmtoll CR       ADVREGEN       LL_ADC_IsInternalRegulatorEnabled
  * @param  ADCx ADC instance
  * @retval 0: internal regulator is disabled, 1: internal regulator is enabled.
  */
__STATIC_INLINE uint32_t LL_ADC_IsInternalRegulatorEnabled(ADC_TypeDef *ADCx)
{
 8000af8:	b580      	push	{r7, lr}
 8000afa:	b082      	sub	sp, #8
 8000afc:	af00      	add	r7, sp, #0
 8000afe:	6078      	str	r0, [r7, #4]
  return ((READ_BIT(ADCx->CR, ADC_CR_ADVREGEN) == (ADC_CR_ADVREGEN)) ? 1UL : 0UL);
 8000b00:	687b      	ldr	r3, [r7, #4]
 8000b02:	689a      	ldr	r2, [r3, #8]
 8000b04:	2380      	movs	r3, #128	; 0x80
 8000b06:	055b      	lsls	r3, r3, #21
 8000b08:	401a      	ands	r2, r3
 8000b0a:	2380      	movs	r3, #128	; 0x80
 8000b0c:	055b      	lsls	r3, r3, #21
 8000b0e:	429a      	cmp	r2, r3
 8000b10:	d101      	bne.n	8000b16 <LL_ADC_IsInternalRegulatorEnabled+0x1e>
 8000b12:	2301      	movs	r3, #1
 8000b14:	e000      	b.n	8000b18 <LL_ADC_IsInternalRegulatorEnabled+0x20>
 8000b16:	2300      	movs	r3, #0
}
 8000b18:	0018      	movs	r0, r3
 8000b1a:	46bd      	mov	sp, r7
 8000b1c:	b002      	add	sp, #8
 8000b1e:	bd80      	pop	{r7, pc}

08000b20 <LL_ADC_Enable>:
  * @rmtoll CR       ADEN           LL_ADC_Enable
  * @param  ADCx ADC instance
  * @retval None
  */
__STATIC_INLINE void LL_ADC_Enable(ADC_TypeDef *ADCx)
{
 8000b20:	b580      	push	{r7, lr}
 8000b22:	b082      	sub	sp, #8
 8000b24:	af00      	add	r7, sp, #0
 8000b26:	6078      	str	r0, [r7, #4]
  /* Note: Write register with some additional bits forced to state reset     */
  /*       instead of modifying only the selected bit for this function,      */
  /*       to not interfere with bits with HW property "rs".                  */
  MODIFY_REG(ADCx->CR,
 8000b28:	687b      	ldr	r3, [r7, #4]
 8000b2a:	689b      	ldr	r3, [r3, #8]
 8000b2c:	4a04      	ldr	r2, [pc, #16]	; (8000b40 <LL_ADC_Enable+0x20>)
 8000b2e:	4013      	ands	r3, r2
 8000b30:	2201      	movs	r2, #1
 8000b32:	431a      	orrs	r2, r3
 8000b34:	687b      	ldr	r3, [r7, #4]
 8000b36:	609a      	str	r2, [r3, #8]
             ADC_CR_BITS_PROPERTY_RS,
             ADC_CR_ADEN);
}
 8000b38:	46c0      	nop			; (mov r8, r8)
 8000b3a:	46bd      	mov	sp, r7
 8000b3c:	b002      	add	sp, #8
 8000b3e:	bd80      	pop	{r7, pc}
 8000b40:	7fffffe8 	.word	0x7fffffe8

08000b44 <LL_ADC_IsEnabled>:
  * @rmtoll CR       ADEN           LL_ADC_IsEnabled
  * @param  ADCx ADC instance
  * @retval 0: ADC is disabled, 1: ADC is enabled.
  */
__STATIC_INLINE uint32_t LL_ADC_IsEnabled(ADC_TypeDef *ADCx)
{
 8000b44:	b580      	push	{r7, lr}
 8000b46:	b082      	sub	sp, #8
 8000b48:	af00      	add	r7, sp, #0
 8000b4a:	6078      	str	r0, [r7, #4]
  return ((READ_BIT(ADCx->CR, ADC_CR_ADEN) == (ADC_CR_ADEN)) ? 1UL : 0UL);
 8000b4c:	687b      	ldr	r3, [r7, #4]
 8000b4e:	689b      	ldr	r3, [r3, #8]
 8000b50:	2201      	movs	r2, #1
 8000b52:	4013      	ands	r3, r2
 8000b54:	2b01      	cmp	r3, #1
 8000b56:	d101      	bne.n	8000b5c <LL_ADC_IsEnabled+0x18>
 8000b58:	2301      	movs	r3, #1
 8000b5a:	e000      	b.n	8000b5e <LL_ADC_IsEnabled+0x1a>
 8000b5c:	2300      	movs	r3, #0
}
 8000b5e:	0018      	movs	r0, r3
 8000b60:	46bd      	mov	sp, r7
 8000b62:	b002      	add	sp, #8
 8000b64:	bd80      	pop	{r7, pc}
	...

08000b68 <LL_ADC_REG_StartConversion>:
  * @rmtoll CR       ADSTART        LL_ADC_REG_StartConversion
  * @param  ADCx ADC instance
  * @retval None
  */
__STATIC_INLINE void LL_ADC_REG_StartConversion(ADC_TypeDef *ADCx)
{
 8000b68:	b580      	push	{r7, lr}
 8000b6a:	b082      	sub	sp, #8
 8000b6c:	af00      	add	r7, sp, #0
 8000b6e:	6078      	str	r0, [r7, #4]
  /* Note: Write register with some additional bits forced to state reset     */
  /*       instead of modifying only the selected bit for this function,      */
  /*       to not interfere with bits with HW property "rs".                  */
  MODIFY_REG(ADCx->CR,
 8000b70:	687b      	ldr	r3, [r7, #4]
 8000b72:	689b      	ldr	r3, [r3, #8]
 8000b74:	4a04      	ldr	r2, [pc, #16]	; (8000b88 <LL_ADC_REG_StartConversion+0x20>)
 8000b76:	4013      	ands	r3, r2
 8000b78:	2204      	movs	r2, #4
 8000b7a:	431a      	orrs	r2, r3
 8000b7c:	687b      	ldr	r3, [r7, #4]
 8000b7e:	609a      	str	r2, [r3, #8]
             ADC_CR_BITS_PROPERTY_RS,
             ADC_CR_ADSTART);
}
 8000b80:	46c0      	nop			; (mov r8, r8)
 8000b82:	46bd      	mov	sp, r7
 8000b84:	b002      	add	sp, #8
 8000b86:	bd80      	pop	{r7, pc}
 8000b88:	7fffffe8 	.word	0x7fffffe8

08000b8c <LL_ADC_REG_IsConversionOngoing>:
  * @rmtoll CR       ADSTART        LL_ADC_REG_IsConversionOngoing
  * @param  ADCx ADC instance
  * @retval 0: no conversion is on going on ADC group regular.
  */
__STATIC_INLINE uint32_t LL_ADC_REG_IsConversionOngoing(ADC_TypeDef *ADCx)
{
 8000b8c:	b580      	push	{r7, lr}
 8000b8e:	b082      	sub	sp, #8
 8000b90:	af00      	add	r7, sp, #0
 8000b92:	6078      	str	r0, [r7, #4]
  return ((READ_BIT(ADCx->CR, ADC_CR_ADSTART) == (ADC_CR_ADSTART)) ? 1UL : 0UL);
 8000b94:	687b      	ldr	r3, [r7, #4]
 8000b96:	689b      	ldr	r3, [r3, #8]
 8000b98:	2204      	movs	r2, #4
 8000b9a:	4013      	ands	r3, r2
 8000b9c:	2b04      	cmp	r3, #4
 8000b9e:	d101      	bne.n	8000ba4 <LL_ADC_REG_IsConversionOngoing+0x18>
 8000ba0:	2301      	movs	r3, #1
 8000ba2:	e000      	b.n	8000ba6 <LL_ADC_REG_IsConversionOngoing+0x1a>
 8000ba4:	2300      	movs	r3, #0
}
 8000ba6:	0018      	movs	r0, r3
 8000ba8:	46bd      	mov	sp, r7
 8000baa:	b002      	add	sp, #8
 8000bac:	bd80      	pop	{r7, pc}
	...

08000bb0 <HAL_ADC_Init>:
  *         of structure "ADC_InitTypeDef".
  * @param hadc ADC handle
  * @retval HAL status
  */
HAL_StatusTypeDef HAL_ADC_Init(ADC_HandleTypeDef *hadc)
{
 8000bb0:	b580      	push	{r7, lr}
 8000bb2:	b088      	sub	sp, #32
 8000bb4:	af00      	add	r7, sp, #0
 8000bb6:	6078      	str	r0, [r7, #4]
  HAL_StatusTypeDef tmp_hal_status = HAL_OK;
 8000bb8:	231f      	movs	r3, #31
 8000bba:	18fb      	adds	r3, r7, r3
 8000bbc:	2200      	movs	r2, #0
 8000bbe:	701a      	strb	r2, [r3, #0]
  uint32_t tmpCFGR1 = 0UL;
 8000bc0:	2300      	movs	r3, #0
 8000bc2:	61bb      	str	r3, [r7, #24]
  uint32_t tmpCFGR2 = 0UL;
 8000bc4:	2300      	movs	r3, #0
 8000bc6:	617b      	str	r3, [r7, #20]
  uint32_t tmp_adc_reg_is_conversion_on_going;
  __IO uint32_t wait_loop_index = 0UL;
 8000bc8:	2300      	movs	r3, #0
 8000bca:	60bb      	str	r3, [r7, #8]

  /* Check ADC handle */
  if (hadc == NULL)
 8000bcc:	687b      	ldr	r3, [r7, #4]
 8000bce:	2b00      	cmp	r3, #0
 8000bd0:	d101      	bne.n	8000bd6 <HAL_ADC_Init+0x26>
  {
    return HAL_ERROR;
 8000bd2:	2301      	movs	r3, #1
 8000bd4:	e1b1      	b.n	8000f3a <HAL_ADC_Init+0x38a>
  /* continuous mode is disabled.                                             */
  assert_param(!((hadc->Init.DiscontinuousConvMode == ENABLE) && (hadc->Init.ContinuousConvMode == ENABLE)));

  /* Actions performed only if ADC is coming from state reset:                */
  /* - Initialization of ADC MSP                                              */
  if (hadc->State == HAL_ADC_STATE_RESET)
 8000bd6:	687b      	ldr	r3, [r7, #4]
 8000bd8:	6d9b      	ldr	r3, [r3, #88]	; 0x58
 8000bda:	2b00      	cmp	r3, #0
 8000bdc:	d10a      	bne.n	8000bf4 <HAL_ADC_Init+0x44>

    /* Init the low level hardware */
    hadc->MspInitCallback(hadc);
#else
    /* Init the low level hardware */
    HAL_ADC_MspInit(hadc);
 8000bde:	687b      	ldr	r3, [r7, #4]
 8000be0:	0018      	movs	r0, r3
 8000be2:	f7ff fd0d 	bl	8000600 <HAL_ADC_MspInit>
#endif /* USE_HAL_ADC_REGISTER_CALLBACKS */

    /* Set ADC error code to none */
    ADC_CLEAR_ERRORCODE(hadc);
 8000be6:	687b      	ldr	r3, [r7, #4]
 8000be8:	2200      	movs	r2, #0
 8000bea:	65da      	str	r2, [r3, #92]	; 0x5c

    /* Initialize Lock */
    hadc->Lock = HAL_UNLOCKED;
 8000bec:	687b      	ldr	r3, [r7, #4]
 8000bee:	2254      	movs	r2, #84	; 0x54
 8000bf0:	2100      	movs	r1, #0
 8000bf2:	5499      	strb	r1, [r3, r2]
  }

  if (LL_ADC_IsInternalRegulatorEnabled(hadc->Instance) == 0UL)
 8000bf4:	687b      	ldr	r3, [r7, #4]
 8000bf6:	681b      	ldr	r3, [r3, #0]
 8000bf8:	0018      	movs	r0, r3
 8000bfa:	f7ff ff7d 	bl	8000af8 <LL_ADC_IsInternalRegulatorEnabled>
 8000bfe:	1e03      	subs	r3, r0, #0
 8000c00:	d115      	bne.n	8000c2e <HAL_ADC_Init+0x7e>
  {
    /* Enable ADC internal voltage regulator */
    LL_ADC_EnableInternalRegulator(hadc->Instance);
 8000c02:	687b      	ldr	r3, [r7, #4]
 8000c04:	681b      	ldr	r3, [r3, #0]
 8000c06:	0018      	movs	r0, r3
 8000c08:	f7ff ff62 	bl	8000ad0 <LL_ADC_EnableInternalRegulator>
    /* Delay for ADC stabilization time */
    /* Wait loop initialization and execution */
    /* Note: Variable divided by 2 to compensate partially              */
    /*       CPU processing cycles, scaling in us split to not          */
    /*       exceed 32 bits register capacity and handle low frequency. */
    wait_loop_index = ((LL_ADC_DELAY_INTERNAL_REGUL_STAB_US / 10UL) * ((SystemCoreClock / (100000UL * 2UL)) + 1UL));
 8000c0c:	4bcd      	ldr	r3, [pc, #820]	; (8000f44 <HAL_ADC_Init+0x394>)
 8000c0e:	681b      	ldr	r3, [r3, #0]
 8000c10:	49cd      	ldr	r1, [pc, #820]	; (8000f48 <HAL_ADC_Init+0x398>)
 8000c12:	0018      	movs	r0, r3
 8000c14:	f7ff fa76 	bl	8000104 <__udivsi3>
 8000c18:	0003      	movs	r3, r0
 8000c1a:	3301      	adds	r3, #1
 8000c1c:	005b      	lsls	r3, r3, #1
 8000c1e:	60bb      	str	r3, [r7, #8]
    while (wait_loop_index != 0UL)
 8000c20:	e002      	b.n	8000c28 <HAL_ADC_Init+0x78>
    {
      wait_loop_index--;
 8000c22:	68bb      	ldr	r3, [r7, #8]
 8000c24:	3b01      	subs	r3, #1
 8000c26:	60bb      	str	r3, [r7, #8]
    while (wait_loop_index != 0UL)
 8000c28:	68bb      	ldr	r3, [r7, #8]
 8000c2a:	2b00      	cmp	r3, #0
 8000c2c:	d1f9      	bne.n	8000c22 <HAL_ADC_Init+0x72>
  }

  /* Verification that ADC voltage regulator is correctly enabled, whether    */
  /* or not ADC is coming from state reset (if any potential problem of       */
  /* clocking, voltage regulator would not be enabled).                       */
  if (LL_ADC_IsInternalRegulatorEnabled(hadc->Instance) == 0UL)
 8000c2e:	687b      	ldr	r3, [r7, #4]
 8000c30:	681b      	ldr	r3, [r3, #0]
 8000c32:	0018      	movs	r0, r3
 8000c34:	f7ff ff60 	bl	8000af8 <LL_ADC_IsInternalRegulatorEnabled>
 8000c38:	1e03      	subs	r3, r0, #0
 8000c3a:	d10f      	bne.n	8000c5c <HAL_ADC_Init+0xac>
  {
    /* Update ADC state machine to error */
    SET_BIT(hadc->State, HAL_ADC_STATE_ERROR_INTERNAL);
 8000c3c:	687b      	ldr	r3, [r7, #4]
 8000c3e:	6d9b      	ldr	r3, [r3, #88]	; 0x58
 8000c40:	2210      	movs	r2, #16
 8000c42:	431a      	orrs	r2, r3
 8000c44:	687b      	ldr	r3, [r7, #4]
 8000c46:	659a      	str	r2, [r3, #88]	; 0x58

    /* Set ADC error code to ADC peripheral internal error */
    SET_BIT(hadc->ErrorCode, HAL_ADC_ERROR_INTERNAL);
 8000c48:	687b      	ldr	r3, [r7, #4]
 8000c4a:	6ddb      	ldr	r3, [r3, #92]	; 0x5c
 8000c4c:	2201      	movs	r2, #1
 8000c4e:	431a      	orrs	r2, r3
 8000c50:	687b      	ldr	r3, [r7, #4]
 8000c52:	65da      	str	r2, [r3, #92]	; 0x5c

    tmp_hal_status = HAL_ERROR;
 8000c54:	231f      	movs	r3, #31
 8000c56:	18fb      	adds	r3, r7, r3
 8000c58:	2201      	movs	r2, #1
 8000c5a:	701a      	strb	r2, [r3, #0]

  /* Configuration of ADC parameters if previous preliminary actions are      */
  /* correctly completed and if there is no conversion on going on regular    */
  /* group (ADC may already be enabled at this point if HAL_ADC_Init() is     */
  /* called to update a parameter on the fly).                                */
  tmp_adc_reg_is_conversion_on_going = LL_ADC_REG_IsConversionOngoing(hadc->Instance);
 8000c5c:	687b      	ldr	r3, [r7, #4]
 8000c5e:	681b      	ldr	r3, [r3, #0]
 8000c60:	0018      	movs	r0, r3
 8000c62:	f7ff ff93 	bl	8000b8c <LL_ADC_REG_IsConversionOngoing>
 8000c66:	0003      	movs	r3, r0
 8000c68:	60fb      	str	r3, [r7, #12]

  if (((hadc->State & HAL_ADC_STATE_ERROR_INTERNAL) == 0UL)
 8000c6a:	687b      	ldr	r3, [r7, #4]
 8000c6c:	6d9b      	ldr	r3, [r3, #88]	; 0x58
 8000c6e:	2210      	movs	r2, #16
 8000c70:	4013      	ands	r3, r2
 8000c72:	d000      	beq.n	8000c76 <HAL_ADC_Init+0xc6>
 8000c74:	e154      	b.n	8000f20 <HAL_ADC_Init+0x370>
      && (tmp_adc_reg_is_conversion_on_going == 0UL)
 8000c76:	68fb      	ldr	r3, [r7, #12]
 8000c78:	2b00      	cmp	r3, #0
 8000c7a:	d000      	beq.n	8000c7e <HAL_ADC_Init+0xce>
 8000c7c:	e150      	b.n	8000f20 <HAL_ADC_Init+0x370>
     )
  {
    /* Set ADC state */
    ADC_STATE_CLR_SET(hadc->State,
 8000c7e:	687b      	ldr	r3, [r7, #4]
 8000c80:	6d9b      	ldr	r3, [r3, #88]	; 0x58
 8000c82:	4ab2      	ldr	r2, [pc, #712]	; (8000f4c <HAL_ADC_Init+0x39c>)
 8000c84:	4013      	ands	r3, r2
 8000c86:	2202      	movs	r2, #2
 8000c88:	431a      	orrs	r2, r3
 8000c8a:	687b      	ldr	r3, [r7, #4]
 8000c8c:	659a      	str	r2, [r3, #88]	; 0x58
    /*  - Oversampling                                                        */
    /*  - Trigger frequency mode                                              */
    /* Note: If low power mode AutoPowerOff is enabled, ADC enable            */
    /*       and disable phases are performed automatically by hardware       */
    /*       (in this case, flag ADC_FLAG_RDY is not set).                    */
    if (LL_ADC_IsEnabled(hadc->Instance) == 0UL)
 8000c8e:	687b      	ldr	r3, [r7, #4]
 8000c90:	681b      	ldr	r3, [r3, #0]
 8000c92:	0018      	movs	r0, r3
 8000c94:	f7ff ff56 	bl	8000b44 <LL_ADC_IsEnabled>
 8000c98:	1e03      	subs	r3, r0, #0
 8000c9a:	d156      	bne.n	8000d4a <HAL_ADC_Init+0x19a>
      /* parameters):                                                         */
      /*   - internal measurement paths (VrefInt, ...)                        */
      /*     (set into HAL_ADC_ConfigChannel() )                              */

      /* Configuration of ADC resolution                                      */
      MODIFY_REG(hadc->Instance->CFGR1,
 8000c9c:	687b      	ldr	r3, [r7, #4]
 8000c9e:	681b      	ldr	r3, [r3, #0]
 8000ca0:	68db      	ldr	r3, [r3, #12]
 8000ca2:	2218      	movs	r2, #24
 8000ca4:	4393      	bics	r3, r2
 8000ca6:	0019      	movs	r1, r3
 8000ca8:	687b      	ldr	r3, [r7, #4]
 8000caa:	689a      	ldr	r2, [r3, #8]
 8000cac:	687b      	ldr	r3, [r7, #4]
 8000cae:	681b      	ldr	r3, [r3, #0]
 8000cb0:	430a      	orrs	r2, r1
 8000cb2:	60da      	str	r2, [r3, #12]
                 ADC_CFGR1_RES,
                 hadc->Init.Resolution);

      tmpCFGR2 |= ((hadc->Init.ClockPrescaler & ADC_CFGR2_CKMODE) |
 8000cb4:	687b      	ldr	r3, [r7, #4]
 8000cb6:	685b      	ldr	r3, [r3, #4]
 8000cb8:	0f9b      	lsrs	r3, r3, #30
 8000cba:	079a      	lsls	r2, r3, #30
                   hadc->Init.TriggerFrequencyMode
 8000cbc:	687b      	ldr	r3, [r7, #4]
 8000cbe:	6cdb      	ldr	r3, [r3, #76]	; 0x4c
      tmpCFGR2 |= ((hadc->Init.ClockPrescaler & ADC_CFGR2_CKMODE) |
 8000cc0:	4313      	orrs	r3, r2
 8000cc2:	697a      	ldr	r2, [r7, #20]
 8000cc4:	4313      	orrs	r3, r2
 8000cc6:	617b      	str	r3, [r7, #20]
                  );

      if (hadc->Init.OversamplingMode == ENABLE)
 8000cc8:	687b      	ldr	r3, [r7, #4]
 8000cca:	223c      	movs	r2, #60	; 0x3c
 8000ccc:	5c9b      	ldrb	r3, [r3, r2]
 8000cce:	2b01      	cmp	r3, #1
 8000cd0:	d111      	bne.n	8000cf6 <HAL_ADC_Init+0x146>
      {
        tmpCFGR2 |= (ADC_CFGR2_OVSE |
                     (hadc->Init.ClockPrescaler & ADC_CFGR2_CKMODE) |
 8000cd2:	687b      	ldr	r3, [r7, #4]
 8000cd4:	685b      	ldr	r3, [r3, #4]
 8000cd6:	0f9b      	lsrs	r3, r3, #30
 8000cd8:	079a      	lsls	r2, r3, #30
                     hadc->Init.Oversampling.Ratio         |
 8000cda:	687b      	ldr	r3, [r7, #4]
 8000cdc:	6c1b      	ldr	r3, [r3, #64]	; 0x40
                     (hadc->Init.ClockPrescaler & ADC_CFGR2_CKMODE) |
 8000cde:	431a      	orrs	r2, r3
                     hadc->Init.Oversampling.RightBitShift |
 8000ce0:	687b      	ldr	r3, [r7, #4]
 8000ce2:	6c5b      	ldr	r3, [r3, #68]	; 0x44
                     hadc->Init.Oversampling.Ratio         |
 8000ce4:	431a      	orrs	r2, r3
                     hadc->Init.Oversampling.TriggeredMode
 8000ce6:	687b      	ldr	r3, [r7, #4]
 8000ce8:	6c9b      	ldr	r3, [r3, #72]	; 0x48
                     hadc->Init.Oversampling.RightBitShift |
 8000cea:	431a      	orrs	r2, r3
        tmpCFGR2 |= (ADC_CFGR2_OVSE |
 8000cec:	697b      	ldr	r3, [r7, #20]
 8000cee:	4313      	orrs	r3, r2
 8000cf0:	2201      	movs	r2, #1
 8000cf2:	4313      	orrs	r3, r2
 8000cf4:	617b      	str	r3, [r7, #20]
                    );
      }

      MODIFY_REG(hadc->Instance->CFGR2,
 8000cf6:	687b      	ldr	r3, [r7, #4]
 8000cf8:	681b      	ldr	r3, [r3, #0]
 8000cfa:	691b      	ldr	r3, [r3, #16]
 8000cfc:	4a94      	ldr	r2, [pc, #592]	; (8000f50 <HAL_ADC_Init+0x3a0>)
 8000cfe:	4013      	ands	r3, r2
 8000d00:	0019      	movs	r1, r3
 8000d02:	687b      	ldr	r3, [r7, #4]
 8000d04:	681b      	ldr	r3, [r3, #0]
 8000d06:	697a      	ldr	r2, [r7, #20]
 8000d08:	430a      	orrs	r2, r1
 8000d0a:	611a      	str	r2, [r3, #16]
                 ADC_CFGR2_TOVS,
                 tmpCFGR2);

      /* Configuration of ADC clock mode: asynchronous clock source           */
      /* with selectable prescaler.                                           */
      if (((hadc->Init.ClockPrescaler) != ADC_CLOCK_SYNC_PCLK_DIV1) &&
 8000d0c:	687b      	ldr	r3, [r7, #4]
 8000d0e:	685a      	ldr	r2, [r3, #4]
 8000d10:	23c0      	movs	r3, #192	; 0xc0
 8000d12:	061b      	lsls	r3, r3, #24
 8000d14:	429a      	cmp	r2, r3
 8000d16:	d018      	beq.n	8000d4a <HAL_ADC_Init+0x19a>
          ((hadc->Init.ClockPrescaler) != ADC_CLOCK_SYNC_PCLK_DIV2) &&
 8000d18:	687b      	ldr	r3, [r7, #4]
 8000d1a:	685a      	ldr	r2, [r3, #4]
      if (((hadc->Init.ClockPrescaler) != ADC_CLOCK_SYNC_PCLK_DIV1) &&
 8000d1c:	2380      	movs	r3, #128	; 0x80
 8000d1e:	05db      	lsls	r3, r3, #23
 8000d20:	429a      	cmp	r2, r3
 8000d22:	d012      	beq.n	8000d4a <HAL_ADC_Init+0x19a>
          ((hadc->Init.ClockPrescaler) != ADC_CLOCK_SYNC_PCLK_DIV4))
 8000d24:	687b      	ldr	r3, [r7, #4]
 8000d26:	685a      	ldr	r2, [r3, #4]
          ((hadc->Init.ClockPrescaler) != ADC_CLOCK_SYNC_PCLK_DIV2) &&
 8000d28:	2380      	movs	r3, #128	; 0x80
 8000d2a:	061b      	lsls	r3, r3, #24
 8000d2c:	429a      	cmp	r2, r3
 8000d2e:	d00c      	beq.n	8000d4a <HAL_ADC_Init+0x19a>
      {
        MODIFY_REG(ADC1_COMMON->CCR,
 8000d30:	4b88      	ldr	r3, [pc, #544]	; (8000f54 <HAL_ADC_Init+0x3a4>)
 8000d32:	681b      	ldr	r3, [r3, #0]
 8000d34:	4a88      	ldr	r2, [pc, #544]	; (8000f58 <HAL_ADC_Init+0x3a8>)
 8000d36:	4013      	ands	r3, r2
 8000d38:	0019      	movs	r1, r3
 8000d3a:	687b      	ldr	r3, [r7, #4]
 8000d3c:	685a      	ldr	r2, [r3, #4]
 8000d3e:	23f0      	movs	r3, #240	; 0xf0
 8000d40:	039b      	lsls	r3, r3, #14
 8000d42:	401a      	ands	r2, r3
 8000d44:	4b83      	ldr	r3, [pc, #524]	; (8000f54 <HAL_ADC_Init+0x3a4>)
 8000d46:	430a      	orrs	r2, r1
 8000d48:	601a      	str	r2, [r3, #0]
    /*  - external trigger polarity                                           */
    /*  - data alignment                                                      */
    /*  - resolution                                                          */
    /*  - scan direction                                                      */
    /*  - DMA continuous request                                              */
    tmpCFGR1 |= (ADC_CFGR1_AUTOWAIT((uint32_t)hadc->Init.LowPowerAutoWait)      |
 8000d4a:	687b      	ldr	r3, [r7, #4]
 8000d4c:	7e1b      	ldrb	r3, [r3, #24]
 8000d4e:	039a      	lsls	r2, r3, #14
                 ADC_CFGR1_AUTOOFF((uint32_t)hadc->Init.LowPowerAutoPowerOff)   |
 8000d50:	687b      	ldr	r3, [r7, #4]
 8000d52:	7e5b      	ldrb	r3, [r3, #25]
 8000d54:	03db      	lsls	r3, r3, #15
    tmpCFGR1 |= (ADC_CFGR1_AUTOWAIT((uint32_t)hadc->Init.LowPowerAutoWait)      |
 8000d56:	431a      	orrs	r2, r3
                 ADC_CFGR1_CONTINUOUS((uint32_t)hadc->Init.ContinuousConvMode)  |
 8000d58:	687b      	ldr	r3, [r7, #4]
 8000d5a:	7e9b      	ldrb	r3, [r3, #26]
 8000d5c:	035b      	lsls	r3, r3, #13
                 ADC_CFGR1_AUTOOFF((uint32_t)hadc->Init.LowPowerAutoPowerOff)   |
 8000d5e:	431a      	orrs	r2, r3
                 ADC_CFGR1_OVERRUN(hadc->Init.Overrun)                          |
 8000d60:	687b      	ldr	r3, [r7, #4]
 8000d62:	6b1b      	ldr	r3, [r3, #48]	; 0x30
 8000d64:	2b00      	cmp	r3, #0
 8000d66:	d002      	beq.n	8000d6e <HAL_ADC_Init+0x1be>
 8000d68:	2380      	movs	r3, #128	; 0x80
 8000d6a:	015b      	lsls	r3, r3, #5
 8000d6c:	e000      	b.n	8000d70 <HAL_ADC_Init+0x1c0>
 8000d6e:	2300      	movs	r3, #0
                 ADC_CFGR1_CONTINUOUS((uint32_t)hadc->Init.ContinuousConvMode)  |
 8000d70:	431a      	orrs	r2, r3
                 hadc->Init.DataAlign                                           |
 8000d72:	687b      	ldr	r3, [r7, #4]
 8000d74:	68db      	ldr	r3, [r3, #12]
                 ADC_CFGR1_OVERRUN(hadc->Init.Overrun)                          |
 8000d76:	431a      	orrs	r2, r3
                 ADC_SCAN_SEQ_MODE(hadc->Init.ScanConvMode)                     |
 8000d78:	687b      	ldr	r3, [r7, #4]
 8000d7a:	691b      	ldr	r3, [r3, #16]
 8000d7c:	2b00      	cmp	r3, #0
 8000d7e:	da04      	bge.n	8000d8a <HAL_ADC_Init+0x1da>
 8000d80:	687b      	ldr	r3, [r7, #4]
 8000d82:	691b      	ldr	r3, [r3, #16]
 8000d84:	005b      	lsls	r3, r3, #1
 8000d86:	085b      	lsrs	r3, r3, #1
 8000d88:	e001      	b.n	8000d8e <HAL_ADC_Init+0x1de>
 8000d8a:	2380      	movs	r3, #128	; 0x80
 8000d8c:	039b      	lsls	r3, r3, #14
                 hadc->Init.DataAlign                                           |
 8000d8e:	431a      	orrs	r2, r3
                 ADC_CFGR1_DMACONTREQ((uint32_t)hadc->Init.DMAContinuousRequests));
 8000d90:	687b      	ldr	r3, [r7, #4]
 8000d92:	212c      	movs	r1, #44	; 0x2c
 8000d94:	5c5b      	ldrb	r3, [r3, r1]
 8000d96:	005b      	lsls	r3, r3, #1
                 ADC_SCAN_SEQ_MODE(hadc->Init.ScanConvMode)                     |
 8000d98:	4313      	orrs	r3, r2
    tmpCFGR1 |= (ADC_CFGR1_AUTOWAIT((uint32_t)hadc->Init.LowPowerAutoWait)      |
 8000d9a:	69ba      	ldr	r2, [r7, #24]
 8000d9c:	4313      	orrs	r3, r2
 8000d9e:	61bb      	str	r3, [r7, #24]

    /* Update setting of discontinuous mode only if continuous mode is disabled */
    if (hadc->Init.DiscontinuousConvMode == ENABLE)
 8000da0:	687b      	ldr	r3, [r7, #4]
 8000da2:	2220      	movs	r2, #32
 8000da4:	5c9b      	ldrb	r3, [r3, r2]
 8000da6:	2b01      	cmp	r3, #1
 8000da8:	d115      	bne.n	8000dd6 <HAL_ADC_Init+0x226>
    {
      if (hadc->Init.ContinuousConvMode == DISABLE)
 8000daa:	687b      	ldr	r3, [r7, #4]
 8000dac:	7e9b      	ldrb	r3, [r3, #26]
 8000dae:	2b00      	cmp	r3, #0
 8000db0:	d105      	bne.n	8000dbe <HAL_ADC_Init+0x20e>
      {
        /* Enable the selected ADC group regular discontinuous mode */
        tmpCFGR1 |= ADC_CFGR1_DISCEN;
 8000db2:	69bb      	ldr	r3, [r7, #24]
 8000db4:	2280      	movs	r2, #128	; 0x80
 8000db6:	0252      	lsls	r2, r2, #9
 8000db8:	4313      	orrs	r3, r2
 8000dba:	61bb      	str	r3, [r7, #24]
 8000dbc:	e00b      	b.n	8000dd6 <HAL_ADC_Init+0x226>
        /* ADC regular group discontinuous was intended to be enabled,        */
        /* but ADC regular group modes continuous and sequencer discontinuous */
        /* cannot be enabled simultaneously.                                  */

        /* Update ADC state machine to error */
        SET_BIT(hadc->State, HAL_ADC_STATE_ERROR_CONFIG);
 8000dbe:	687b      	ldr	r3, [r7, #4]
 8000dc0:	6d9b      	ldr	r3, [r3, #88]	; 0x58
 8000dc2:	2220      	movs	r2, #32
 8000dc4:	431a      	orrs	r2, r3
 8000dc6:	687b      	ldr	r3, [r7, #4]
 8000dc8:	659a      	str	r2, [r3, #88]	; 0x58

        /* Set ADC error code to ADC peripheral internal error */
        SET_BIT(hadc->ErrorCode, HAL_ADC_ERROR_INTERNAL);
 8000dca:	687b      	ldr	r3, [r7, #4]
 8000dcc:	6ddb      	ldr	r3, [r3, #92]	; 0x5c
 8000dce:	2201      	movs	r2, #1
 8000dd0:	431a      	orrs	r2, r3
 8000dd2:	687b      	ldr	r3, [r7, #4]
 8000dd4:	65da      	str	r2, [r3, #92]	; 0x5c
    /* Enable external trigger if trigger selection is different of software  */
    /* start.                                                                 */
    /* Note: This configuration keeps the hardware feature of parameter       */
    /*       ExternalTrigConvEdge "trigger edge none" equivalent to           */
    /*       software start.                                                  */
    if (hadc->Init.ExternalTrigConv != ADC_SOFTWARE_START)
 8000dd6:	687b      	ldr	r3, [r7, #4]
 8000dd8:	6a5b      	ldr	r3, [r3, #36]	; 0x24
 8000dda:	2b00      	cmp	r3, #0
 8000ddc:	d00a      	beq.n	8000df4 <HAL_ADC_Init+0x244>
    {
      tmpCFGR1 |= ((hadc->Init.ExternalTrigConv & ADC_CFGR1_EXTSEL) |
 8000dde:	687b      	ldr	r3, [r7, #4]
 8000de0:	6a5a      	ldr	r2, [r3, #36]	; 0x24
 8000de2:	23e0      	movs	r3, #224	; 0xe0
 8000de4:	005b      	lsls	r3, r3, #1
 8000de6:	401a      	ands	r2, r3
                   hadc->Init.ExternalTrigConvEdge);
 8000de8:	687b      	ldr	r3, [r7, #4]
 8000dea:	6a9b      	ldr	r3, [r3, #40]	; 0x28
      tmpCFGR1 |= ((hadc->Init.ExternalTrigConv & ADC_CFGR1_EXTSEL) |
 8000dec:	4313      	orrs	r3, r2
 8000dee:	69ba      	ldr	r2, [r7, #24]
 8000df0:	4313      	orrs	r3, r2
 8000df2:	61bb      	str	r3, [r7, #24]
    }

    /* Update ADC configuration register with previous settings */
    MODIFY_REG(hadc->Instance->CFGR1,
 8000df4:	687b      	ldr	r3, [r7, #4]
 8000df6:	681b      	ldr	r3, [r3, #0]
 8000df8:	68db      	ldr	r3, [r3, #12]
 8000dfa:	4a58      	ldr	r2, [pc, #352]	; (8000f5c <HAL_ADC_Init+0x3ac>)
 8000dfc:	4013      	ands	r3, r2
 8000dfe:	0019      	movs	r1, r3
 8000e00:	687b      	ldr	r3, [r7, #4]
 8000e02:	681b      	ldr	r3, [r3, #0]
 8000e04:	69ba      	ldr	r2, [r7, #24]
 8000e06:	430a      	orrs	r2, r1
 8000e08:	60da      	str	r2, [r3, #12]
               ADC_CFGR1_ALIGN   |
               ADC_CFGR1_SCANDIR |
               ADC_CFGR1_DMACFG,
               tmpCFGR1);

    MODIFY_REG(hadc->Instance->CFGR2,
 8000e0a:	687b      	ldr	r3, [r7, #4]
 8000e0c:	681b      	ldr	r3, [r3, #0]
 8000e0e:	691b      	ldr	r3, [r3, #16]
 8000e10:	4a53      	ldr	r2, [pc, #332]	; (8000f60 <HAL_ADC_Init+0x3b0>)
 8000e12:	4013      	ands	r3, r2
 8000e14:	0019      	movs	r1, r3
 8000e16:	687b      	ldr	r3, [r7, #4]
 8000e18:	681b      	ldr	r3, [r3, #0]
 8000e1a:	697a      	ldr	r2, [r7, #20]
 8000e1c:	430a      	orrs	r2, r1
 8000e1e:	611a      	str	r2, [r3, #16]
               ADC_CFGR2_OVSS   |
               ADC_CFGR2_TOVS,
               tmpCFGR2);

    /* Channel sampling time configuration */
    LL_ADC_SetSamplingTimeCommonChannels(hadc->Instance, LL_ADC_SAMPLINGTIME_COMMON_1, hadc->Init.SamplingTimeCommon1);
 8000e20:	687b      	ldr	r3, [r7, #4]
 8000e22:	6818      	ldr	r0, [r3, #0]
 8000e24:	687b      	ldr	r3, [r7, #4]
 8000e26:	6b5b      	ldr	r3, [r3, #52]	; 0x34
 8000e28:	001a      	movs	r2, r3
 8000e2a:	2100      	movs	r1, #0
 8000e2c:	f7ff fdc3 	bl	80009b6 <LL_ADC_SetSamplingTimeCommonChannels>
    LL_ADC_SetSamplingTimeCommonChannels(hadc->Instance, LL_ADC_SAMPLINGTIME_COMMON_2, hadc->Init.SamplingTimeCommon2);
 8000e30:	687b      	ldr	r3, [r7, #4]
 8000e32:	6818      	ldr	r0, [r3, #0]
 8000e34:	687b      	ldr	r3, [r7, #4]
 8000e36:	6b9b      	ldr	r3, [r3, #56]	; 0x38
 8000e38:	494a      	ldr	r1, [pc, #296]	; (8000f64 <HAL_ADC_Init+0x3b4>)
 8000e3a:	001a      	movs	r2, r3
 8000e3c:	f7ff fdbb 	bl	80009b6 <LL_ADC_SetSamplingTimeCommonChannels>
    /*   emulated by software for alignment over all STM32 devices.           */
    /* - if scan mode is enabled, regular channels sequence length is set to  */
    /*   parameter "NbrOfConversion".                                         */
    /*   Channels must be configured into each rank using function            */
    /*   "HAL_ADC_ConfigChannel()".                                           */
    if (hadc->Init.ScanConvMode == ADC_SCAN_DISABLE)
 8000e40:	687b      	ldr	r3, [r7, #4]
 8000e42:	691b      	ldr	r3, [r3, #16]
 8000e44:	2b00      	cmp	r3, #0
 8000e46:	d109      	bne.n	8000e5c <HAL_ADC_Init+0x2ac>
    {
      /* Set sequencer scan length by clearing ranks above rank 1             */
      /* and do not modify rank 1 value.                                      */
      SET_BIT(hadc->Instance->CHSELR,
 8000e48:	687b      	ldr	r3, [r7, #4]
 8000e4a:	681b      	ldr	r3, [r3, #0]
 8000e4c:	6a9a      	ldr	r2, [r3, #40]	; 0x28
 8000e4e:	687b      	ldr	r3, [r7, #4]
 8000e50:	681b      	ldr	r3, [r3, #0]
 8000e52:	2110      	movs	r1, #16
 8000e54:	4249      	negs	r1, r1
 8000e56:	430a      	orrs	r2, r1
 8000e58:	629a      	str	r2, [r3, #40]	; 0x28
 8000e5a:	e03a      	b.n	8000ed2 <HAL_ADC_Init+0x322>
              ADC_CHSELR_SQ2_TO_SQ8);
    }
    else if (hadc->Init.ScanConvMode == ADC_SCAN_ENABLE)
 8000e5c:	687b      	ldr	r3, [r7, #4]
 8000e5e:	691a      	ldr	r2, [r3, #16]
 8000e60:	2380      	movs	r3, #128	; 0x80
 8000e62:	039b      	lsls	r3, r3, #14
 8000e64:	429a      	cmp	r2, r3
 8000e66:	d134      	bne.n	8000ed2 <HAL_ADC_Init+0x322>
    {
      /* Count number of ranks available in HAL ADC handle variable */
      uint32_t ADCGroupRegularSequencerRanksCount;

      /* Parse all ranks from 1 to 8 */
      for (ADCGroupRegularSequencerRanksCount = 0UL; ADCGroupRegularSequencerRanksCount < (8UL); ADCGroupRegularSequencerRanksCount++)
 8000e68:	2300      	movs	r3, #0
 8000e6a:	613b      	str	r3, [r7, #16]
 8000e6c:	e00c      	b.n	8000e88 <HAL_ADC_Init+0x2d8>
      {
        /* Check each sequencer rank until value of end of sequence */
        if (((hadc->ADCGroupRegularSequencerRanks >> (ADCGroupRegularSequencerRanksCount * 4UL)) & ADC_CHSELR_SQ1) ==
 8000e6e:	687b      	ldr	r3, [r7, #4]
 8000e70:	6e1a      	ldr	r2, [r3, #96]	; 0x60
 8000e72:	693b      	ldr	r3, [r7, #16]
 8000e74:	009b      	lsls	r3, r3, #2
 8000e76:	40da      	lsrs	r2, r3
 8000e78:	0013      	movs	r3, r2
 8000e7a:	220f      	movs	r2, #15
 8000e7c:	4013      	ands	r3, r2
 8000e7e:	2b0f      	cmp	r3, #15
 8000e80:	d006      	beq.n	8000e90 <HAL_ADC_Init+0x2e0>
      for (ADCGroupRegularSequencerRanksCount = 0UL; ADCGroupRegularSequencerRanksCount < (8UL); ADCGroupRegularSequencerRanksCount++)
 8000e82:	693b      	ldr	r3, [r7, #16]
 8000e84:	3301      	adds	r3, #1
 8000e86:	613b      	str	r3, [r7, #16]
 8000e88:	693b      	ldr	r3, [r7, #16]
 8000e8a:	2b07      	cmp	r3, #7
 8000e8c:	d9ef      	bls.n	8000e6e <HAL_ADC_Init+0x2be>
 8000e8e:	e000      	b.n	8000e92 <HAL_ADC_Init+0x2e2>
            ADC_CHSELR_SQ1)
        {
          break;
 8000e90:	46c0      	nop			; (mov r8, r8)
        }
      }

      if (ADCGroupRegularSequencerRanksCount == 1UL)
 8000e92:	693b      	ldr	r3, [r7, #16]
 8000e94:	2b01      	cmp	r3, #1
 8000e96:	d109      	bne.n	8000eac <HAL_ADC_Init+0x2fc>
      {
        /* Set ADC group regular sequencer:                                   */
        /* Set sequencer scan length by clearing ranks above rank 1           */
        /* and do not modify rank 1 value.                                    */
        SET_BIT(hadc->Instance->CHSELR,
 8000e98:	687b      	ldr	r3, [r7, #4]
 8000e9a:	681b      	ldr	r3, [r3, #0]
 8000e9c:	6a9a      	ldr	r2, [r3, #40]	; 0x28
 8000e9e:	687b      	ldr	r3, [r7, #4]
 8000ea0:	681b      	ldr	r3, [r3, #0]
 8000ea2:	2110      	movs	r1, #16
 8000ea4:	4249      	negs	r1, r1
 8000ea6:	430a      	orrs	r2, r1
 8000ea8:	629a      	str	r2, [r3, #40]	; 0x28
 8000eaa:	e012      	b.n	8000ed2 <HAL_ADC_Init+0x322>
        /*          therefore after the first call of "HAL_ADC_Init()",       */
        /*          each rank corresponding to parameter "NbrOfConversion"    */
        /*          must be set using "HAL_ADC_ConfigChannel()".              */
        /*  - Set sequencer scan length by clearing ranks above maximum rank  */
        /*    and do not modify other ranks value.                            */
        MODIFY_REG(hadc->Instance->CHSELR,
 8000eac:	687b      	ldr	r3, [r7, #4]
 8000eae:	681b      	ldr	r3, [r3, #0]
 8000eb0:	6a9b      	ldr	r3, [r3, #40]	; 0x28
 8000eb2:	687b      	ldr	r3, [r7, #4]
 8000eb4:	69db      	ldr	r3, [r3, #28]
 8000eb6:	3b01      	subs	r3, #1
 8000eb8:	009b      	lsls	r3, r3, #2
 8000eba:	221c      	movs	r2, #28
 8000ebc:	4013      	ands	r3, r2
 8000ebe:	2210      	movs	r2, #16
 8000ec0:	4252      	negs	r2, r2
 8000ec2:	409a      	lsls	r2, r3
 8000ec4:	0011      	movs	r1, r2
 8000ec6:	687b      	ldr	r3, [r7, #4]
 8000ec8:	6e1a      	ldr	r2, [r3, #96]	; 0x60
 8000eca:	687b      	ldr	r3, [r7, #4]
 8000ecc:	681b      	ldr	r3, [r3, #0]
 8000ece:	430a      	orrs	r2, r1
 8000ed0:	629a      	str	r2, [r3, #40]	; 0x28
    /* Check back that ADC registers have effectively been configured to      */
    /* ensure of no potential problem of ADC core peripheral clocking.        */
    /* Check through register CFGR1 (excluding analog watchdog configuration: */
    /* set into separate dedicated function, and bits of ADC resolution set   */
    /* out of temporary variable 'tmpCFGR1').                                 */
    if ((hadc->Instance->CFGR1 & ~(ADC_CFGR1_AWD1CH | ADC_CFGR1_AWD1EN | ADC_CFGR1_AWD1SGL | ADC_CFGR1_RES))
 8000ed2:	687b      	ldr	r3, [r7, #4]
 8000ed4:	681b      	ldr	r3, [r3, #0]
 8000ed6:	68db      	ldr	r3, [r3, #12]
 8000ed8:	4a23      	ldr	r2, [pc, #140]	; (8000f68 <HAL_ADC_Init+0x3b8>)
 8000eda:	4013      	ands	r3, r2
 8000edc:	69ba      	ldr	r2, [r7, #24]
 8000ede:	429a      	cmp	r2, r3
 8000ee0:	d10b      	bne.n	8000efa <HAL_ADC_Init+0x34a>
        == tmpCFGR1)
    {
      /* Set ADC error code to none */
      ADC_CLEAR_ERRORCODE(hadc);
 8000ee2:	687b      	ldr	r3, [r7, #4]
 8000ee4:	2200      	movs	r2, #0
 8000ee6:	65da      	str	r2, [r3, #92]	; 0x5c

      /* Set the ADC state */
      ADC_STATE_CLR_SET(hadc->State,
 8000ee8:	687b      	ldr	r3, [r7, #4]
 8000eea:	6d9b      	ldr	r3, [r3, #88]	; 0x58
 8000eec:	2203      	movs	r2, #3
 8000eee:	4393      	bics	r3, r2
 8000ef0:	2201      	movs	r2, #1
 8000ef2:	431a      	orrs	r2, r3
 8000ef4:	687b      	ldr	r3, [r7, #4]
 8000ef6:	659a      	str	r2, [r3, #88]	; 0x58
    if ((hadc->Instance->CFGR1 & ~(ADC_CFGR1_AWD1CH | ADC_CFGR1_AWD1EN | ADC_CFGR1_AWD1SGL | ADC_CFGR1_RES))
 8000ef8:	e01c      	b.n	8000f34 <HAL_ADC_Init+0x384>
                        HAL_ADC_STATE_READY);
    }
    else
    {
      /* Update ADC state machine to error */
      ADC_STATE_CLR_SET(hadc->State,
 8000efa:	687b      	ldr	r3, [r7, #4]
 8000efc:	6d9b      	ldr	r3, [r3, #88]	; 0x58
 8000efe:	2212      	movs	r2, #18
 8000f00:	4393      	bics	r3, r2
 8000f02:	2210      	movs	r2, #16
 8000f04:	431a      	orrs	r2, r3
 8000f06:	687b      	ldr	r3, [r7, #4]
 8000f08:	659a      	str	r2, [r3, #88]	; 0x58
                        HAL_ADC_STATE_BUSY_INTERNAL,
                        HAL_ADC_STATE_ERROR_INTERNAL);

      /* Set ADC error code to ADC peripheral internal error */
      SET_BIT(hadc->ErrorCode, HAL_ADC_ERROR_INTERNAL);
 8000f0a:	687b      	ldr	r3, [r7, #4]
 8000f0c:	6ddb      	ldr	r3, [r3, #92]	; 0x5c
 8000f0e:	2201      	movs	r2, #1
 8000f10:	431a      	orrs	r2, r3
 8000f12:	687b      	ldr	r3, [r7, #4]
 8000f14:	65da      	str	r2, [r3, #92]	; 0x5c

      tmp_hal_status = HAL_ERROR;
 8000f16:	231f      	movs	r3, #31
 8000f18:	18fb      	adds	r3, r7, r3
 8000f1a:	2201      	movs	r2, #1
 8000f1c:	701a      	strb	r2, [r3, #0]
    if ((hadc->Instance->CFGR1 & ~(ADC_CFGR1_AWD1CH | ADC_CFGR1_AWD1EN | ADC_CFGR1_AWD1SGL | ADC_CFGR1_RES))
 8000f1e:	e009      	b.n	8000f34 <HAL_ADC_Init+0x384>

  }
  else
  {
    /* Update ADC state machine to error */
    SET_BIT(hadc->State, HAL_ADC_STATE_ERROR_INTERNAL);
 8000f20:	687b      	ldr	r3, [r7, #4]
 8000f22:	6d9b      	ldr	r3, [r3, #88]	; 0x58
 8000f24:	2210      	movs	r2, #16
 8000f26:	431a      	orrs	r2, r3
 8000f28:	687b      	ldr	r3, [r7, #4]
 8000f2a:	659a      	str	r2, [r3, #88]	; 0x58

    tmp_hal_status = HAL_ERROR;
 8000f2c:	231f      	movs	r3, #31
 8000f2e:	18fb      	adds	r3, r7, r3
 8000f30:	2201      	movs	r2, #1
 8000f32:	701a      	strb	r2, [r3, #0]
  }

  return tmp_hal_status;
 8000f34:	231f      	movs	r3, #31
 8000f36:	18fb      	adds	r3, r7, r3
 8000f38:	781b      	ldrb	r3, [r3, #0]
}
 8000f3a:	0018      	movs	r0, r3
 8000f3c:	46bd      	mov	sp, r7
 8000f3e:	b008      	add	sp, #32
 8000f40:	bd80      	pop	{r7, pc}
 8000f42:	46c0      	nop			; (mov r8, r8)
 8000f44:	20000000 	.word	0x20000000
 8000f48:	00030d40 	.word	0x00030d40
 8000f4c:	fffffefd 	.word	0xfffffefd
 8000f50:	1ffffc02 	.word	0x1ffffc02
 8000f54:	40012708 	.word	0x40012708
 8000f58:	ffc3ffff 	.word	0xffc3ffff
 8000f5c:	fffe0219 	.word	0xfffe0219
 8000f60:	dffffc02 	.word	0xdffffc02
 8000f64:	07ffff04 	.word	0x07ffff04
 8000f68:	833fffe7 	.word	0x833fffe7

08000f6c <HAL_ADC_Start>:
  * @note   Interruptions enabled in this function: None.
  * @param hadc ADC handle
  * @retval HAL status
  */
HAL_StatusTypeDef HAL_ADC_Start(ADC_HandleTypeDef *hadc)
{
 8000f6c:	b5b0      	push	{r4, r5, r7, lr}
 8000f6e:	b084      	sub	sp, #16
 8000f70:	af00      	add	r7, sp, #0
 8000f72:	6078      	str	r0, [r7, #4]

  /* Check the parameters */
  assert_param(IS_ADC_ALL_INSTANCE(hadc->Instance));

  /* Perform ADC enable and conversion start if no conversion is on going */
  if (LL_ADC_REG_IsConversionOngoing(hadc->Instance) == 0UL)
 8000f74:	687b      	ldr	r3, [r7, #4]
 8000f76:	681b      	ldr	r3, [r3, #0]
 8000f78:	0018      	movs	r0, r3
 8000f7a:	f7ff fe07 	bl	8000b8c <LL_ADC_REG_IsConversionOngoing>
 8000f7e:	1e03      	subs	r3, r0, #0
 8000f80:	d135      	bne.n	8000fee <HAL_ADC_Start+0x82>
  {
    __HAL_LOCK(hadc);
 8000f82:	687b      	ldr	r3, [r7, #4]
 8000f84:	2254      	movs	r2, #84	; 0x54
 8000f86:	5c9b      	ldrb	r3, [r3, r2]
 8000f88:	2b01      	cmp	r3, #1
 8000f8a:	d101      	bne.n	8000f90 <HAL_ADC_Start+0x24>
 8000f8c:	2302      	movs	r3, #2
 8000f8e:	e035      	b.n	8000ffc <HAL_ADC_Start+0x90>
 8000f90:	687b      	ldr	r3, [r7, #4]
 8000f92:	2254      	movs	r2, #84	; 0x54
 8000f94:	2101      	movs	r1, #1
 8000f96:	5499      	strb	r1, [r3, r2]

    /* Enable the ADC peripheral */
    tmp_hal_status = ADC_Enable(hadc);
 8000f98:	250f      	movs	r5, #15
 8000f9a:	197c      	adds	r4, r7, r5
 8000f9c:	687b      	ldr	r3, [r7, #4]
 8000f9e:	0018      	movs	r0, r3
 8000fa0:	f000 faaa 	bl	80014f8 <ADC_Enable>
 8000fa4:	0003      	movs	r3, r0
 8000fa6:	7023      	strb	r3, [r4, #0]

    /* Start conversion if ADC is effectively enabled */
    if (tmp_hal_status == HAL_OK)
 8000fa8:	197b      	adds	r3, r7, r5
 8000faa:	781b      	ldrb	r3, [r3, #0]
 8000fac:	2b00      	cmp	r3, #0
 8000fae:	d119      	bne.n	8000fe4 <HAL_ADC_Start+0x78>
    {
      /* Set ADC state                                                        */
      /* - Clear state bitfield related to regular group conversion results   */
      /* - Set state bitfield related to regular operation                    */
      ADC_STATE_CLR_SET(hadc->State,
 8000fb0:	687b      	ldr	r3, [r7, #4]
 8000fb2:	6d9b      	ldr	r3, [r3, #88]	; 0x58
 8000fb4:	4a13      	ldr	r2, [pc, #76]	; (8001004 <HAL_ADC_Start+0x98>)
 8000fb6:	4013      	ands	r3, r2
 8000fb8:	2280      	movs	r2, #128	; 0x80
 8000fba:	0052      	lsls	r2, r2, #1
 8000fbc:	431a      	orrs	r2, r3
 8000fbe:	687b      	ldr	r3, [r7, #4]
 8000fc0:	659a      	str	r2, [r3, #88]	; 0x58
                        HAL_ADC_STATE_READY | HAL_ADC_STATE_REG_EOC | HAL_ADC_STATE_REG_OVR | HAL_ADC_STATE_REG_EOSMP,
                        HAL_ADC_STATE_REG_BUSY);

      /* Set ADC error code */
      /* Reset all ADC error code fields */
      ADC_CLEAR_ERRORCODE(hadc);
 8000fc2:	687b      	ldr	r3, [r7, #4]
 8000fc4:	2200      	movs	r2, #0
 8000fc6:	65da      	str	r2, [r3, #92]	; 0x5c

      /* Clear ADC group regular conversion flag and overrun flag               */
      /* (To ensure of no unknown state from potential previous ADC operations) */
      __HAL_ADC_CLEAR_FLAG(hadc, (ADC_FLAG_EOC | ADC_FLAG_EOS | ADC_FLAG_OVR));
 8000fc8:	687b      	ldr	r3, [r7, #4]
 8000fca:	681b      	ldr	r3, [r3, #0]
 8000fcc:	221c      	movs	r2, #28
 8000fce:	601a      	str	r2, [r3, #0]

      /* Process unlocked */
      /* Unlock before starting ADC conversions: in case of potential         */
      /* interruption, to let the process to ADC IRQ Handler.                 */
      __HAL_UNLOCK(hadc);
 8000fd0:	687b      	ldr	r3, [r7, #4]
 8000fd2:	2254      	movs	r2, #84	; 0x54
 8000fd4:	2100      	movs	r1, #0
 8000fd6:	5499      	strb	r1, [r3, r2]
      /* Enable conversion of regular group.                                  */
      /* If software start has been selected, conversion starts immediately.  */
      /* If external trigger has been selected, conversion will start at next */
      /* trigger event.                                                       */
      /* Start ADC group regular conversion */
      LL_ADC_REG_StartConversion(hadc->Instance);
 8000fd8:	687b      	ldr	r3, [r7, #4]
 8000fda:	681b      	ldr	r3, [r3, #0]
 8000fdc:	0018      	movs	r0, r3
 8000fde:	f7ff fdc3 	bl	8000b68 <LL_ADC_REG_StartConversion>
 8000fe2:	e008      	b.n	8000ff6 <HAL_ADC_Start+0x8a>
    }
    else
    {
      __HAL_UNLOCK(hadc);
 8000fe4:	687b      	ldr	r3, [r7, #4]
 8000fe6:	2254      	movs	r2, #84	; 0x54
 8000fe8:	2100      	movs	r1, #0
 8000fea:	5499      	strb	r1, [r3, r2]
 8000fec:	e003      	b.n	8000ff6 <HAL_ADC_Start+0x8a>
    }
  }
  else
  {
    tmp_hal_status = HAL_BUSY;
 8000fee:	230f      	movs	r3, #15
 8000ff0:	18fb      	adds	r3, r7, r3
 8000ff2:	2202      	movs	r2, #2
 8000ff4:	701a      	strb	r2, [r3, #0]
  }

  return tmp_hal_status;
 8000ff6:	230f      	movs	r3, #15
 8000ff8:	18fb      	adds	r3, r7, r3
 8000ffa:	781b      	ldrb	r3, [r3, #0]
}
 8000ffc:	0018      	movs	r0, r3
 8000ffe:	46bd      	mov	sp, r7
 8001000:	b004      	add	sp, #16
 8001002:	bdb0      	pop	{r4, r5, r7, pc}
 8001004:	fffff0fe 	.word	0xfffff0fe

08001008 <HAL_ADC_PollForConversion>:
  * @param hadc ADC handle
  * @param Timeout Timeout value in millisecond.
  * @retval HAL status
  */
HAL_StatusTypeDef HAL_ADC_PollForConversion(ADC_HandleTypeDef *hadc, uint32_t Timeout)
{
 8001008:	b580      	push	{r7, lr}
 800100a:	b084      	sub	sp, #16
 800100c:	af00      	add	r7, sp, #0
 800100e:	6078      	str	r0, [r7, #4]
 8001010:	6039      	str	r1, [r7, #0]

  /* Check the parameters */
  assert_param(IS_ADC_ALL_INSTANCE(hadc->Instance));

  /* If end of conversion selected to end of sequence conversions */
  if (hadc->Init.EOCSelection == ADC_EOC_SEQ_CONV)
 8001012:	687b      	ldr	r3, [r7, #4]
 8001014:	695b      	ldr	r3, [r3, #20]
 8001016:	2b08      	cmp	r3, #8
 8001018:	d102      	bne.n	8001020 <HAL_ADC_PollForConversion+0x18>
  {
    tmp_flag_end = ADC_FLAG_EOS;
 800101a:	2308      	movs	r3, #8
 800101c:	60fb      	str	r3, [r7, #12]
 800101e:	e00f      	b.n	8001040 <HAL_ADC_PollForConversion+0x38>
    /* each conversion:                                                       */
    /* Particular case is ADC configured in DMA mode and ADC sequencer with   */
    /* several ranks and polling for end of each conversion.                  */
    /* For code simplicity sake, this particular case is generalized to       */
    /* ADC configured in DMA mode and and polling for end of each conversion. */
    if ((hadc->Instance->CFGR1 & ADC_CFGR1_DMAEN) != 0UL)
 8001020:	687b      	ldr	r3, [r7, #4]
 8001022:	681b      	ldr	r3, [r3, #0]
 8001024:	68db      	ldr	r3, [r3, #12]
 8001026:	2201      	movs	r2, #1
 8001028:	4013      	ands	r3, r2
 800102a:	d007      	beq.n	800103c <HAL_ADC_PollForConversion+0x34>
    {
      /* Update ADC state machine to error */
      SET_BIT(hadc->State, HAL_ADC_STATE_ERROR_CONFIG);
 800102c:	687b      	ldr	r3, [r7, #4]
 800102e:	6d9b      	ldr	r3, [r3, #88]	; 0x58
 8001030:	2220      	movs	r2, #32
 8001032:	431a      	orrs	r2, r3
 8001034:	687b      	ldr	r3, [r7, #4]
 8001036:	659a      	str	r2, [r3, #88]	; 0x58

      return HAL_ERROR;
 8001038:	2301      	movs	r3, #1
 800103a:	e072      	b.n	8001122 <HAL_ADC_PollForConversion+0x11a>
    }
    else
    {
      tmp_flag_end = (ADC_FLAG_EOC);
 800103c:	2304      	movs	r3, #4
 800103e:	60fb      	str	r3, [r7, #12]
    }
  }

  /* Get tick count */
  tickstart = HAL_GetTick();
 8001040:	f7ff fc54 	bl	80008ec <HAL_GetTick>
 8001044:	0003      	movs	r3, r0
 8001046:	60bb      	str	r3, [r7, #8]

  /* Wait until End of unitary conversion or sequence conversions flag is raised */
  while ((hadc->Instance->ISR & tmp_flag_end) == 0UL)
 8001048:	e01f      	b.n	800108a <HAL_ADC_PollForConversion+0x82>
  {
    /* Check if timeout is disabled (set to infinite wait) */
    if (Timeout != HAL_MAX_DELAY)
 800104a:	683b      	ldr	r3, [r7, #0]
 800104c:	3301      	adds	r3, #1
 800104e:	d01c      	beq.n	800108a <HAL_ADC_PollForConversion+0x82>
    {
      if (((HAL_GetTick() - tickstart) > Timeout) || (Timeout == 0UL))
 8001050:	f7ff fc4c 	bl	80008ec <HAL_GetTick>
 8001054:	0002      	movs	r2, r0
 8001056:	68bb      	ldr	r3, [r7, #8]
 8001058:	1ad3      	subs	r3, r2, r3
 800105a:	683a      	ldr	r2, [r7, #0]
 800105c:	429a      	cmp	r2, r3
 800105e:	d302      	bcc.n	8001066 <HAL_ADC_PollForConversion+0x5e>
 8001060:	683b      	ldr	r3, [r7, #0]
 8001062:	2b00      	cmp	r3, #0
 8001064:	d111      	bne.n	800108a <HAL_ADC_PollForConversion+0x82>
      {
        /* New check to avoid false timeout detection in case of preemption */
        if ((hadc->Instance->ISR & tmp_flag_end) == 0UL)
 8001066:	687b      	ldr	r3, [r7, #4]
 8001068:	681b      	ldr	r3, [r3, #0]
 800106a:	681b      	ldr	r3, [r3, #0]
 800106c:	68fa      	ldr	r2, [r7, #12]
 800106e:	4013      	ands	r3, r2
 8001070:	d10b      	bne.n	800108a <HAL_ADC_PollForConversion+0x82>
        {
          /* Update ADC state machine to timeout */
          SET_BIT(hadc->State, HAL_ADC_STATE_TIMEOUT);
 8001072:	687b      	ldr	r3, [r7, #4]
 8001074:	6d9b      	ldr	r3, [r3, #88]	; 0x58
 8001076:	2204      	movs	r2, #4
 8001078:	431a      	orrs	r2, r3
 800107a:	687b      	ldr	r3, [r7, #4]
 800107c:	659a      	str	r2, [r3, #88]	; 0x58

          __HAL_UNLOCK(hadc);
 800107e:	687b      	ldr	r3, [r7, #4]
 8001080:	2254      	movs	r2, #84	; 0x54
 8001082:	2100      	movs	r1, #0
 8001084:	5499      	strb	r1, [r3, r2]

          return HAL_TIMEOUT;
 8001086:	2303      	movs	r3, #3
 8001088:	e04b      	b.n	8001122 <HAL_ADC_PollForConversion+0x11a>
  while ((hadc->Instance->ISR & tmp_flag_end) == 0UL)
 800108a:	687b      	ldr	r3, [r7, #4]
 800108c:	681b      	ldr	r3, [r3, #0]
 800108e:	681b      	ldr	r3, [r3, #0]
 8001090:	68fa      	ldr	r2, [r7, #12]
 8001092:	4013      	ands	r3, r2
 8001094:	d0d9      	beq.n	800104a <HAL_ADC_PollForConversion+0x42>
      }
    }
  }

  /* Update ADC state machine */
  SET_BIT(hadc->State, HAL_ADC_STATE_REG_EOC);
 8001096:	687b      	ldr	r3, [r7, #4]
 8001098:	6d9b      	ldr	r3, [r3, #88]	; 0x58
 800109a:	2280      	movs	r2, #128	; 0x80
 800109c:	0092      	lsls	r2, r2, #2
 800109e:	431a      	orrs	r2, r3
 80010a0:	687b      	ldr	r3, [r7, #4]
 80010a2:	659a      	str	r2, [r3, #88]	; 0x58

  /* Determine whether any further conversion upcoming on group regular       */
  /* by external trigger, continuous mode or scan sequence on going.          */
  if ((LL_ADC_REG_IsTriggerSourceSWStart(hadc->Instance) != 0UL)
 80010a4:	687b      	ldr	r3, [r7, #4]
 80010a6:	681b      	ldr	r3, [r3, #0]
 80010a8:	0018      	movs	r0, r3
 80010aa:	f7ff fca1 	bl	80009f0 <LL_ADC_REG_IsTriggerSourceSWStart>
 80010ae:	1e03      	subs	r3, r0, #0
 80010b0:	d02e      	beq.n	8001110 <HAL_ADC_PollForConversion+0x108>
      && (hadc->Init.ContinuousConvMode == DISABLE)
 80010b2:	687b      	ldr	r3, [r7, #4]
 80010b4:	7e9b      	ldrb	r3, [r3, #26]
 80010b6:	2b00      	cmp	r3, #0
 80010b8:	d12a      	bne.n	8001110 <HAL_ADC_PollForConversion+0x108>
     )
  {
    /* Check whether end of sequence is reached */
    if (__HAL_ADC_GET_FLAG(hadc, ADC_FLAG_EOS))
 80010ba:	687b      	ldr	r3, [r7, #4]
 80010bc:	681b      	ldr	r3, [r3, #0]
 80010be:	681b      	ldr	r3, [r3, #0]
 80010c0:	2208      	movs	r2, #8
 80010c2:	4013      	ands	r3, r2
 80010c4:	2b08      	cmp	r3, #8
 80010c6:	d123      	bne.n	8001110 <HAL_ADC_PollForConversion+0x108>
    {
      /* Allowed to modify bits ADC_IT_EOC/ADC_IT_EOS only if bit             */
      /* ADSTART==0 (no conversion on going)                                  */
      if (LL_ADC_REG_IsConversionOngoing(hadc->Instance) == 0UL)
 80010c8:	687b      	ldr	r3, [r7, #4]
 80010ca:	681b      	ldr	r3, [r3, #0]
 80010cc:	0018      	movs	r0, r3
 80010ce:	f7ff fd5d 	bl	8000b8c <LL_ADC_REG_IsConversionOngoing>
 80010d2:	1e03      	subs	r3, r0, #0
 80010d4:	d110      	bne.n	80010f8 <HAL_ADC_PollForConversion+0xf0>
      {
        /* Disable ADC end of single conversion interrupt on group regular */
        /* Note: Overrun interrupt was enabled with EOC interrupt in          */
        /* HAL_Start_IT(), but is not disabled here because can be used       */
        /* by overrun IRQ process below.                                      */
        __HAL_ADC_DISABLE_IT(hadc, ADC_IT_EOC | ADC_IT_EOS);
 80010d6:	687b      	ldr	r3, [r7, #4]
 80010d8:	681b      	ldr	r3, [r3, #0]
 80010da:	685a      	ldr	r2, [r3, #4]
 80010dc:	687b      	ldr	r3, [r7, #4]
 80010de:	681b      	ldr	r3, [r3, #0]
 80010e0:	210c      	movs	r1, #12
 80010e2:	438a      	bics	r2, r1
 80010e4:	605a      	str	r2, [r3, #4]

        /* Set ADC state */
        ADC_STATE_CLR_SET(hadc->State,
 80010e6:	687b      	ldr	r3, [r7, #4]
 80010e8:	6d9b      	ldr	r3, [r3, #88]	; 0x58
 80010ea:	4a10      	ldr	r2, [pc, #64]	; (800112c <HAL_ADC_PollForConversion+0x124>)
 80010ec:	4013      	ands	r3, r2
 80010ee:	2201      	movs	r2, #1
 80010f0:	431a      	orrs	r2, r3
 80010f2:	687b      	ldr	r3, [r7, #4]
 80010f4:	659a      	str	r2, [r3, #88]	; 0x58
 80010f6:	e00b      	b.n	8001110 <HAL_ADC_PollForConversion+0x108>
                          HAL_ADC_STATE_READY);
      }
      else
      {
        /* Change ADC state to error state */
        SET_BIT(hadc->State, HAL_ADC_STATE_ERROR_CONFIG);
 80010f8:	687b      	ldr	r3, [r7, #4]
 80010fa:	6d9b      	ldr	r3, [r3, #88]	; 0x58
 80010fc:	2220      	movs	r2, #32
 80010fe:	431a      	orrs	r2, r3
 8001100:	687b      	ldr	r3, [r7, #4]
 8001102:	659a      	str	r2, [r3, #88]	; 0x58

        /* Set ADC error code to ADC peripheral internal error */
        SET_BIT(hadc->ErrorCode, HAL_ADC_ERROR_INTERNAL);
 8001104:	687b      	ldr	r3, [r7, #4]
 8001106:	6ddb      	ldr	r3, [r3, #92]	; 0x5c
 8001108:	2201      	movs	r2, #1
 800110a:	431a      	orrs	r2, r3
 800110c:	687b      	ldr	r3, [r7, #4]
 800110e:	65da      	str	r2, [r3, #92]	; 0x5c
  }

  /* Clear end of conversion flag of regular group if low power feature       */
  /* "LowPowerAutoWait " is disabled, to not interfere with this feature      */
  /* until data register is read using function HAL_ADC_GetValue().           */
  if (hadc->Init.LowPowerAutoWait == DISABLE)
 8001110:	687b      	ldr	r3, [r7, #4]
 8001112:	7e1b      	ldrb	r3, [r3, #24]
 8001114:	2b00      	cmp	r3, #0
 8001116:	d103      	bne.n	8001120 <HAL_ADC_PollForConversion+0x118>
  {
    /* Clear regular group conversion flag */
    __HAL_ADC_CLEAR_FLAG(hadc, (ADC_FLAG_EOC | ADC_FLAG_EOS));
 8001118:	687b      	ldr	r3, [r7, #4]
 800111a:	681b      	ldr	r3, [r3, #0]
 800111c:	220c      	movs	r2, #12
 800111e:	601a      	str	r2, [r3, #0]
  }

  /* Return function status */
  return HAL_OK;
 8001120:	2300      	movs	r3, #0
}
 8001122:	0018      	movs	r0, r3
 8001124:	46bd      	mov	sp, r7
 8001126:	b004      	add	sp, #16
 8001128:	bd80      	pop	{r7, pc}
 800112a:	46c0      	nop			; (mov r8, r8)
 800112c:	fffffefe 	.word	0xfffffefe

08001130 <HAL_ADC_GetValue>:
  *         or @ref __HAL_ADC_CLEAR_FLAG(&hadc, ADC_FLAG_EOS).
  * @param hadc ADC handle
  * @retval ADC group regular conversion data
  */
uint32_t HAL_ADC_GetValue(ADC_HandleTypeDef *hadc)
{
 8001130:	b580      	push	{r7, lr}
 8001132:	b082      	sub	sp, #8
 8001134:	af00      	add	r7, sp, #0
 8001136:	6078      	str	r0, [r7, #4]

  /* Note: EOC flag is not cleared here by software because automatically     */
  /*       cleared by hardware when reading register DR.                      */

  /* Return ADC converted value */
  return hadc->Instance->DR;
 8001138:	687b      	ldr	r3, [r7, #4]
 800113a:	681b      	ldr	r3, [r3, #0]
 800113c:	6c1b      	ldr	r3, [r3, #64]	; 0x40
}
 800113e:	0018      	movs	r0, r3
 8001140:	46bd      	mov	sp, r7
 8001142:	b002      	add	sp, #8
 8001144:	bd80      	pop	{r7, pc}
	...

08001148 <HAL_ADC_ConfigChannel>:
  * @param hadc ADC handle
  * @param pConfig Structure of ADC channel assigned to ADC group regular.
  * @retval HAL status
  */
HAL_StatusTypeDef HAL_ADC_ConfigChannel(ADC_HandleTypeDef *hadc, ADC_ChannelConfTypeDef *pConfig)
{
 8001148:	b580      	push	{r7, lr}
 800114a:	b086      	sub	sp, #24
 800114c:	af00      	add	r7, sp, #0
 800114e:	6078      	str	r0, [r7, #4]
 8001150:	6039      	str	r1, [r7, #0]
  HAL_StatusTypeDef tmp_hal_status = HAL_OK;
 8001152:	2317      	movs	r3, #23
 8001154:	18fb      	adds	r3, r7, r3
 8001156:	2200      	movs	r2, #0
 8001158:	701a      	strb	r2, [r3, #0]
  uint32_t tmp_config_internal_channel;
  __IO uint32_t wait_loop_index = 0UL;
 800115a:	2300      	movs	r3, #0
 800115c:	60fb      	str	r3, [r7, #12]
    assert_param(IS_ADC_REGULAR_NB_CONV(hadc->Init.NbrOfConversion));

    assert_param(IS_ADC_REGULAR_RANK(pConfig->Rank));
  }

  __HAL_LOCK(hadc);
 800115e:	687b      	ldr	r3, [r7, #4]
 8001160:	2254      	movs	r2, #84	; 0x54
 8001162:	5c9b      	ldrb	r3, [r3, r2]
 8001164:	2b01      	cmp	r3, #1
 8001166:	d101      	bne.n	800116c <HAL_ADC_ConfigChannel+0x24>
 8001168:	2302      	movs	r3, #2
 800116a:	e1c0      	b.n	80014ee <HAL_ADC_ConfigChannel+0x3a6>
 800116c:	687b      	ldr	r3, [r7, #4]
 800116e:	2254      	movs	r2, #84	; 0x54
 8001170:	2101      	movs	r1, #1
 8001172:	5499      	strb	r1, [r3, r2]
  /* Parameters that can be updated when ADC is disabled or enabled without   */
  /* conversion on going on regular group:                                    */
  /*  - Channel number                                                        */
  /*  - Channel sampling time                                                 */
  /*  - Management of internal measurement channels: VrefInt/TempSensor/Vbat  */
  if (LL_ADC_REG_IsConversionOngoing(hadc->Instance) == 0UL)
 8001174:	687b      	ldr	r3, [r7, #4]
 8001176:	681b      	ldr	r3, [r3, #0]
 8001178:	0018      	movs	r0, r3
 800117a:	f7ff fd07 	bl	8000b8c <LL_ADC_REG_IsConversionOngoing>
 800117e:	1e03      	subs	r3, r0, #0
 8001180:	d000      	beq.n	8001184 <HAL_ADC_ConfigChannel+0x3c>
 8001182:	e1a3      	b.n	80014cc <HAL_ADC_ConfigChannel+0x384>
    /* If sequencer set to not fully configurable with channel rank set to    */
    /* none, remove the channel from the sequencer.                           */
    /* Otherwise (sequencer set to fully configurable or to to not fully      */
    /* configurable with channel rank to be set), configure the selected      */
    /* channel.                                                               */
    if (pConfig->Rank != ADC_RANK_NONE)
 8001184:	683b      	ldr	r3, [r7, #0]
 8001186:	685b      	ldr	r3, [r3, #4]
 8001188:	2b02      	cmp	r3, #2
 800118a:	d100      	bne.n	800118e <HAL_ADC_ConfigChannel+0x46>
 800118c:	e143      	b.n	8001416 <HAL_ADC_ConfigChannel+0x2ce>
      /* Note: ADC channel configuration requires few ADC clock cycles        */
      /*       to be ready. Processing of ADC settings in this function       */
      /*       induce that a specific wait time is not necessary.             */
      /*       For more details on ADC channel configuration ready,           */
      /*       refer to function "LL_ADC_IsActiveFlag_CCRDY()".               */
      if ((hadc->Init.ScanConvMode == ADC_SCAN_SEQ_FIXED)       ||
 800118e:	687b      	ldr	r3, [r7, #4]
 8001190:	691a      	ldr	r2, [r3, #16]
 8001192:	2380      	movs	r3, #128	; 0x80
 8001194:	061b      	lsls	r3, r3, #24
 8001196:	429a      	cmp	r2, r3
 8001198:	d004      	beq.n	80011a4 <HAL_ADC_ConfigChannel+0x5c>
          (hadc->Init.ScanConvMode == ADC_SCAN_SEQ_FIXED_BACKWARD))
 800119a:	687b      	ldr	r3, [r7, #4]
 800119c:	691b      	ldr	r3, [r3, #16]
      if ((hadc->Init.ScanConvMode == ADC_SCAN_SEQ_FIXED)       ||
 800119e:	4ac1      	ldr	r2, [pc, #772]	; (80014a4 <HAL_ADC_ConfigChannel+0x35c>)
 80011a0:	4293      	cmp	r3, r2
 80011a2:	d108      	bne.n	80011b6 <HAL_ADC_ConfigChannel+0x6e>
      {
        /* Sequencer set to not fully configurable:                           */
        /* Set the channel by enabling the corresponding bitfield.            */
        LL_ADC_REG_SetSequencerChAdd(hadc->Instance, pConfig->Channel);
 80011a4:	687b      	ldr	r3, [r7, #4]
 80011a6:	681a      	ldr	r2, [r3, #0]
 80011a8:	683b      	ldr	r3, [r7, #0]
 80011aa:	681b      	ldr	r3, [r3, #0]
 80011ac:	0019      	movs	r1, r3
 80011ae:	0010      	movs	r0, r2
 80011b0:	f7ff fc4f 	bl	8000a52 <LL_ADC_REG_SetSequencerChAdd>
 80011b4:	e0c9      	b.n	800134a <HAL_ADC_ConfigChannel+0x202>
      {
        /* Sequencer set to fully configurable:                               */
        /* Set the channel by entering it into the selected rank.             */

        /* Memorize the channel set into variable in HAL ADC handle */
        MODIFY_REG(hadc->ADCGroupRegularSequencerRanks,
 80011b6:	687b      	ldr	r3, [r7, #4]
 80011b8:	6e1a      	ldr	r2, [r3, #96]	; 0x60
 80011ba:	683b      	ldr	r3, [r7, #0]
 80011bc:	685b      	ldr	r3, [r3, #4]
 80011be:	211f      	movs	r1, #31
 80011c0:	400b      	ands	r3, r1
 80011c2:	210f      	movs	r1, #15
 80011c4:	4099      	lsls	r1, r3
 80011c6:	000b      	movs	r3, r1
 80011c8:	43db      	mvns	r3, r3
 80011ca:	4013      	ands	r3, r2
 80011cc:	0019      	movs	r1, r3
 80011ce:	683b      	ldr	r3, [r7, #0]
 80011d0:	681b      	ldr	r3, [r3, #0]
 80011d2:	035b      	lsls	r3, r3, #13
 80011d4:	0b5b      	lsrs	r3, r3, #13
 80011d6:	d105      	bne.n	80011e4 <HAL_ADC_ConfigChannel+0x9c>
 80011d8:	683b      	ldr	r3, [r7, #0]
 80011da:	681b      	ldr	r3, [r3, #0]
 80011dc:	0e9b      	lsrs	r3, r3, #26
 80011de:	221f      	movs	r2, #31
 80011e0:	4013      	ands	r3, r2
 80011e2:	e098      	b.n	8001316 <HAL_ADC_ConfigChannel+0x1ce>
 80011e4:	683b      	ldr	r3, [r7, #0]
 80011e6:	681b      	ldr	r3, [r3, #0]
 80011e8:	2201      	movs	r2, #1
 80011ea:	4013      	ands	r3, r2
 80011ec:	d000      	beq.n	80011f0 <HAL_ADC_ConfigChannel+0xa8>
 80011ee:	e091      	b.n	8001314 <HAL_ADC_ConfigChannel+0x1cc>
 80011f0:	683b      	ldr	r3, [r7, #0]
 80011f2:	681b      	ldr	r3, [r3, #0]
 80011f4:	2202      	movs	r2, #2
 80011f6:	4013      	ands	r3, r2
 80011f8:	d000      	beq.n	80011fc <HAL_ADC_ConfigChannel+0xb4>
 80011fa:	e089      	b.n	8001310 <HAL_ADC_ConfigChannel+0x1c8>
 80011fc:	683b      	ldr	r3, [r7, #0]
 80011fe:	681b      	ldr	r3, [r3, #0]
 8001200:	2204      	movs	r2, #4
 8001202:	4013      	ands	r3, r2
 8001204:	d000      	beq.n	8001208 <HAL_ADC_ConfigChannel+0xc0>
 8001206:	e081      	b.n	800130c <HAL_ADC_ConfigChannel+0x1c4>
 8001208:	683b      	ldr	r3, [r7, #0]
 800120a:	681b      	ldr	r3, [r3, #0]
 800120c:	2208      	movs	r2, #8
 800120e:	4013      	ands	r3, r2
 8001210:	d000      	beq.n	8001214 <HAL_ADC_ConfigChannel+0xcc>
 8001212:	e079      	b.n	8001308 <HAL_ADC_ConfigChannel+0x1c0>
 8001214:	683b      	ldr	r3, [r7, #0]
 8001216:	681b      	ldr	r3, [r3, #0]
 8001218:	2210      	movs	r2, #16
 800121a:	4013      	ands	r3, r2
 800121c:	d000      	beq.n	8001220 <HAL_ADC_ConfigChannel+0xd8>
 800121e:	e071      	b.n	8001304 <HAL_ADC_ConfigChannel+0x1bc>
 8001220:	683b      	ldr	r3, [r7, #0]
 8001222:	681b      	ldr	r3, [r3, #0]
 8001224:	2220      	movs	r2, #32
 8001226:	4013      	ands	r3, r2
 8001228:	d000      	beq.n	800122c <HAL_ADC_ConfigChannel+0xe4>
 800122a:	e069      	b.n	8001300 <HAL_ADC_ConfigChannel+0x1b8>
 800122c:	683b      	ldr	r3, [r7, #0]
 800122e:	681b      	ldr	r3, [r3, #0]
 8001230:	2240      	movs	r2, #64	; 0x40
 8001232:	4013      	ands	r3, r2
 8001234:	d000      	beq.n	8001238 <HAL_ADC_ConfigChannel+0xf0>
 8001236:	e061      	b.n	80012fc <HAL_ADC_ConfigChannel+0x1b4>
 8001238:	683b      	ldr	r3, [r7, #0]
 800123a:	681b      	ldr	r3, [r3, #0]
 800123c:	2280      	movs	r2, #128	; 0x80
 800123e:	4013      	ands	r3, r2
 8001240:	d000      	beq.n	8001244 <HAL_ADC_ConfigChannel+0xfc>
 8001242:	e059      	b.n	80012f8 <HAL_ADC_ConfigChannel+0x1b0>
 8001244:	683b      	ldr	r3, [r7, #0]
 8001246:	681a      	ldr	r2, [r3, #0]
 8001248:	2380      	movs	r3, #128	; 0x80
 800124a:	005b      	lsls	r3, r3, #1
 800124c:	4013      	ands	r3, r2
 800124e:	d151      	bne.n	80012f4 <HAL_ADC_ConfigChannel+0x1ac>
 8001250:	683b      	ldr	r3, [r7, #0]
 8001252:	681a      	ldr	r2, [r3, #0]
 8001254:	2380      	movs	r3, #128	; 0x80
 8001256:	009b      	lsls	r3, r3, #2
 8001258:	4013      	ands	r3, r2
 800125a:	d149      	bne.n	80012f0 <HAL_ADC_ConfigChannel+0x1a8>
 800125c:	683b      	ldr	r3, [r7, #0]
 800125e:	681a      	ldr	r2, [r3, #0]
 8001260:	2380      	movs	r3, #128	; 0x80
 8001262:	00db      	lsls	r3, r3, #3
 8001264:	4013      	ands	r3, r2
 8001266:	d141      	bne.n	80012ec <HAL_ADC_ConfigChannel+0x1a4>
 8001268:	683b      	ldr	r3, [r7, #0]
 800126a:	681a      	ldr	r2, [r3, #0]
 800126c:	2380      	movs	r3, #128	; 0x80
 800126e:	011b      	lsls	r3, r3, #4
 8001270:	4013      	ands	r3, r2
 8001272:	d139      	bne.n	80012e8 <HAL_ADC_ConfigChannel+0x1a0>
 8001274:	683b      	ldr	r3, [r7, #0]
 8001276:	681a      	ldr	r2, [r3, #0]
 8001278:	2380      	movs	r3, #128	; 0x80
 800127a:	015b      	lsls	r3, r3, #5
 800127c:	4013      	ands	r3, r2
 800127e:	d131      	bne.n	80012e4 <HAL_ADC_ConfigChannel+0x19c>
 8001280:	683b      	ldr	r3, [r7, #0]
 8001282:	681a      	ldr	r2, [r3, #0]
 8001284:	2380      	movs	r3, #128	; 0x80
 8001286:	019b      	lsls	r3, r3, #6
 8001288:	4013      	ands	r3, r2
 800128a:	d129      	bne.n	80012e0 <HAL_ADC_ConfigChannel+0x198>
 800128c:	683b      	ldr	r3, [r7, #0]
 800128e:	681a      	ldr	r2, [r3, #0]
 8001290:	2380      	movs	r3, #128	; 0x80
 8001292:	01db      	lsls	r3, r3, #7
 8001294:	4013      	ands	r3, r2
 8001296:	d121      	bne.n	80012dc <HAL_ADC_ConfigChannel+0x194>
 8001298:	683b      	ldr	r3, [r7, #0]
 800129a:	681a      	ldr	r2, [r3, #0]
 800129c:	2380      	movs	r3, #128	; 0x80
 800129e:	021b      	lsls	r3, r3, #8
 80012a0:	4013      	ands	r3, r2
 80012a2:	d119      	bne.n	80012d8 <HAL_ADC_ConfigChannel+0x190>
 80012a4:	683b      	ldr	r3, [r7, #0]
 80012a6:	681a      	ldr	r2, [r3, #0]
 80012a8:	2380      	movs	r3, #128	; 0x80
 80012aa:	025b      	lsls	r3, r3, #9
 80012ac:	4013      	ands	r3, r2
 80012ae:	d111      	bne.n	80012d4 <HAL_ADC_ConfigChannel+0x18c>
 80012b0:	683b      	ldr	r3, [r7, #0]
 80012b2:	681a      	ldr	r2, [r3, #0]
 80012b4:	2380      	movs	r3, #128	; 0x80
 80012b6:	029b      	lsls	r3, r3, #10
 80012b8:	4013      	ands	r3, r2
 80012ba:	d109      	bne.n	80012d0 <HAL_ADC_ConfigChannel+0x188>
 80012bc:	683b      	ldr	r3, [r7, #0]
 80012be:	681a      	ldr	r2, [r3, #0]
 80012c0:	2380      	movs	r3, #128	; 0x80
 80012c2:	02db      	lsls	r3, r3, #11
 80012c4:	4013      	ands	r3, r2
 80012c6:	d001      	beq.n	80012cc <HAL_ADC_ConfigChannel+0x184>
 80012c8:	2312      	movs	r3, #18
 80012ca:	e024      	b.n	8001316 <HAL_ADC_ConfigChannel+0x1ce>
 80012cc:	2300      	movs	r3, #0
 80012ce:	e022      	b.n	8001316 <HAL_ADC_ConfigChannel+0x1ce>
 80012d0:	2311      	movs	r3, #17
 80012d2:	e020      	b.n	8001316 <HAL_ADC_ConfigChannel+0x1ce>
 80012d4:	2310      	movs	r3, #16
 80012d6:	e01e      	b.n	8001316 <HAL_ADC_ConfigChannel+0x1ce>
 80012d8:	230f      	movs	r3, #15
 80012da:	e01c      	b.n	8001316 <HAL_ADC_ConfigChannel+0x1ce>
 80012dc:	230e      	movs	r3, #14
 80012de:	e01a      	b.n	8001316 <HAL_ADC_ConfigChannel+0x1ce>
 80012e0:	230d      	movs	r3, #13
 80012e2:	e018      	b.n	8001316 <HAL_ADC_ConfigChannel+0x1ce>
 80012e4:	230c      	movs	r3, #12
 80012e6:	e016      	b.n	8001316 <HAL_ADC_ConfigChannel+0x1ce>
 80012e8:	230b      	movs	r3, #11
 80012ea:	e014      	b.n	8001316 <HAL_ADC_ConfigChannel+0x1ce>
 80012ec:	230a      	movs	r3, #10
 80012ee:	e012      	b.n	8001316 <HAL_ADC_ConfigChannel+0x1ce>
 80012f0:	2309      	movs	r3, #9
 80012f2:	e010      	b.n	8001316 <HAL_ADC_ConfigChannel+0x1ce>
 80012f4:	2308      	movs	r3, #8
 80012f6:	e00e      	b.n	8001316 <HAL_ADC_ConfigChannel+0x1ce>
 80012f8:	2307      	movs	r3, #7
 80012fa:	e00c      	b.n	8001316 <HAL_ADC_ConfigChannel+0x1ce>
 80012fc:	2306      	movs	r3, #6
 80012fe:	e00a      	b.n	8001316 <HAL_ADC_ConfigChannel+0x1ce>
 8001300:	2305      	movs	r3, #5
 8001302:	e008      	b.n	8001316 <HAL_ADC_ConfigChannel+0x1ce>
 8001304:	2304      	movs	r3, #4
 8001306:	e006      	b.n	8001316 <HAL_ADC_ConfigChannel+0x1ce>
 8001308:	2303      	movs	r3, #3
 800130a:	e004      	b.n	8001316 <HAL_ADC_ConfigChannel+0x1ce>
 800130c:	2302      	movs	r3, #2
 800130e:	e002      	b.n	8001316 <HAL_ADC_ConfigChannel+0x1ce>
 8001310:	2301      	movs	r3, #1
 8001312:	e000      	b.n	8001316 <HAL_ADC_ConfigChannel+0x1ce>
 8001314:	2300      	movs	r3, #0
 8001316:	683a      	ldr	r2, [r7, #0]
 8001318:	6852      	ldr	r2, [r2, #4]
 800131a:	201f      	movs	r0, #31
 800131c:	4002      	ands	r2, r0
 800131e:	4093      	lsls	r3, r2
 8001320:	000a      	movs	r2, r1
 8001322:	431a      	orrs	r2, r3
 8001324:	687b      	ldr	r3, [r7, #4]
 8001326:	661a      	str	r2, [r3, #96]	; 0x60

        /* If the selected rank is below ADC group regular sequencer length,  */
        /* apply the configuration in ADC register.                           */
        /* Note: Otherwise, configuration is not applied.                     */
        /*       To apply it, parameter'NbrOfConversion' must be increased.   */
        if (((pConfig->Rank >> 2UL) + 1UL) <= hadc->Init.NbrOfConversion)
 8001328:	683b      	ldr	r3, [r7, #0]
 800132a:	685b      	ldr	r3, [r3, #4]
 800132c:	089b      	lsrs	r3, r3, #2
 800132e:	1c5a      	adds	r2, r3, #1
 8001330:	687b      	ldr	r3, [r7, #4]
 8001332:	69db      	ldr	r3, [r3, #28]
 8001334:	429a      	cmp	r2, r3
 8001336:	d808      	bhi.n	800134a <HAL_ADC_ConfigChannel+0x202>
        {
          LL_ADC_REG_SetSequencerRanks(hadc->Instance, pConfig->Rank, pConfig->Channel);
 8001338:	687b      	ldr	r3, [r7, #4]
 800133a:	6818      	ldr	r0, [r3, #0]
 800133c:	683b      	ldr	r3, [r7, #0]
 800133e:	6859      	ldr	r1, [r3, #4]
 8001340:	683b      	ldr	r3, [r7, #0]
 8001342:	681b      	ldr	r3, [r3, #0]
 8001344:	001a      	movs	r2, r3
 8001346:	f7ff fb64 	bl	8000a12 <LL_ADC_REG_SetSequencerRanks>
        }
      }

      /* Set sampling time of the selected ADC channel */
      LL_ADC_SetChannelSamplingTime(hadc->Instance, pConfig->Channel, pConfig->SamplingTime);
 800134a:	687b      	ldr	r3, [r7, #4]
 800134c:	6818      	ldr	r0, [r3, #0]
 800134e:	683b      	ldr	r3, [r7, #0]
 8001350:	6819      	ldr	r1, [r3, #0]
 8001352:	683b      	ldr	r3, [r7, #0]
 8001354:	689b      	ldr	r3, [r3, #8]
 8001356:	001a      	movs	r2, r3
 8001358:	f7ff fb9e 	bl	8000a98 <LL_ADC_SetChannelSamplingTime>
      /* internal measurement paths enable: If internal channel selected,     */
      /* enable dedicated internal buffers and path.                          */
      /* Note: these internal measurement paths can be disabled using         */
      /*       HAL_ADC_DeInit() or removing the channel from sequencer with   */
      /*       channel configuration parameter "Rank".                        */
      if (__LL_ADC_IS_CHANNEL_INTERNAL(pConfig->Channel))
 800135c:	683b      	ldr	r3, [r7, #0]
 800135e:	681b      	ldr	r3, [r3, #0]
 8001360:	2b00      	cmp	r3, #0
 8001362:	db00      	blt.n	8001366 <HAL_ADC_ConfigChannel+0x21e>
 8001364:	e0bc      	b.n	80014e0 <HAL_ADC_ConfigChannel+0x398>
      {
        tmp_config_internal_channel = LL_ADC_GetCommonPathInternalCh(__LL_ADC_COMMON_INSTANCE(hadc->Instance));
 8001366:	4b50      	ldr	r3, [pc, #320]	; (80014a8 <HAL_ADC_ConfigChannel+0x360>)
 8001368:	0018      	movs	r0, r3
 800136a:	f7ff fb17 	bl	800099c <LL_ADC_GetCommonPathInternalCh>
 800136e:	0003      	movs	r3, r0
 8001370:	613b      	str	r3, [r7, #16]

        /* If the requested internal measurement path has already been enabled,   */
        /* bypass the configuration processing.                                   */
        if ((pConfig->Channel == ADC_CHANNEL_TEMPSENSOR) &&
 8001372:	683b      	ldr	r3, [r7, #0]
 8001374:	681b      	ldr	r3, [r3, #0]
 8001376:	4a4d      	ldr	r2, [pc, #308]	; (80014ac <HAL_ADC_ConfigChannel+0x364>)
 8001378:	4293      	cmp	r3, r2
 800137a:	d122      	bne.n	80013c2 <HAL_ADC_ConfigChannel+0x27a>
            ((tmp_config_internal_channel & LL_ADC_PATH_INTERNAL_TEMPSENSOR) == 0UL))
 800137c:	693a      	ldr	r2, [r7, #16]
 800137e:	2380      	movs	r3, #128	; 0x80
 8001380:	041b      	lsls	r3, r3, #16
 8001382:	4013      	ands	r3, r2
        if ((pConfig->Channel == ADC_CHANNEL_TEMPSENSOR) &&
 8001384:	d11d      	bne.n	80013c2 <HAL_ADC_ConfigChannel+0x27a>
        {
          LL_ADC_SetCommonPathInternalCh(__LL_ADC_COMMON_INSTANCE(hadc->Instance),
 8001386:	693b      	ldr	r3, [r7, #16]
 8001388:	2280      	movs	r2, #128	; 0x80
 800138a:	0412      	lsls	r2, r2, #16
 800138c:	4313      	orrs	r3, r2
 800138e:	4a46      	ldr	r2, [pc, #280]	; (80014a8 <HAL_ADC_ConfigChannel+0x360>)
 8001390:	0019      	movs	r1, r3
 8001392:	0010      	movs	r0, r2
 8001394:	f7ff faee 	bl	8000974 <LL_ADC_SetCommonPathInternalCh>
          /* Delay for temperature sensor stabilization time */
          /* Wait loop initialization and execution */
          /* Note: Variable divided by 2 to compensate partially              */
          /*       CPU processing cycles, scaling in us split to not          */
          /*       exceed 32 bits register capacity and handle low frequency. */
          wait_loop_index = ((LL_ADC_DELAY_TEMPSENSOR_STAB_US / 10UL) * ((SystemCoreClock / (100000UL * 2UL)) + 1UL));
 8001398:	4b45      	ldr	r3, [pc, #276]	; (80014b0 <HAL_ADC_ConfigChannel+0x368>)
 800139a:	681b      	ldr	r3, [r3, #0]
 800139c:	4945      	ldr	r1, [pc, #276]	; (80014b4 <HAL_ADC_ConfigChannel+0x36c>)
 800139e:	0018      	movs	r0, r3
 80013a0:	f7fe feb0 	bl	8000104 <__udivsi3>
 80013a4:	0003      	movs	r3, r0
 80013a6:	1c5a      	adds	r2, r3, #1
 80013a8:	0013      	movs	r3, r2
 80013aa:	005b      	lsls	r3, r3, #1
 80013ac:	189b      	adds	r3, r3, r2
 80013ae:	009b      	lsls	r3, r3, #2
 80013b0:	60fb      	str	r3, [r7, #12]
          while (wait_loop_index != 0UL)
 80013b2:	e002      	b.n	80013ba <HAL_ADC_ConfigChannel+0x272>
          {
            wait_loop_index--;
 80013b4:	68fb      	ldr	r3, [r7, #12]
 80013b6:	3b01      	subs	r3, #1
 80013b8:	60fb      	str	r3, [r7, #12]
          while (wait_loop_index != 0UL)
 80013ba:	68fb      	ldr	r3, [r7, #12]
 80013bc:	2b00      	cmp	r3, #0
 80013be:	d1f9      	bne.n	80013b4 <HAL_ADC_ConfigChannel+0x26c>
        if ((pConfig->Channel == ADC_CHANNEL_TEMPSENSOR) &&
 80013c0:	e08e      	b.n	80014e0 <HAL_ADC_ConfigChannel+0x398>
          }
        }
        else if ((pConfig->Channel == ADC_CHANNEL_VBAT) && ((tmp_config_internal_channel & LL_ADC_PATH_INTERNAL_VBAT) == 0UL))
 80013c2:	683b      	ldr	r3, [r7, #0]
 80013c4:	681b      	ldr	r3, [r3, #0]
 80013c6:	4a3c      	ldr	r2, [pc, #240]	; (80014b8 <HAL_ADC_ConfigChannel+0x370>)
 80013c8:	4293      	cmp	r3, r2
 80013ca:	d10e      	bne.n	80013ea <HAL_ADC_ConfigChannel+0x2a2>
 80013cc:	693a      	ldr	r2, [r7, #16]
 80013ce:	2380      	movs	r3, #128	; 0x80
 80013d0:	045b      	lsls	r3, r3, #17
 80013d2:	4013      	ands	r3, r2
 80013d4:	d109      	bne.n	80013ea <HAL_ADC_ConfigChannel+0x2a2>
        {
          LL_ADC_SetCommonPathInternalCh(__LL_ADC_COMMON_INSTANCE(hadc->Instance),
 80013d6:	693b      	ldr	r3, [r7, #16]
 80013d8:	2280      	movs	r2, #128	; 0x80
 80013da:	0452      	lsls	r2, r2, #17
 80013dc:	4313      	orrs	r3, r2
 80013de:	4a32      	ldr	r2, [pc, #200]	; (80014a8 <HAL_ADC_ConfigChannel+0x360>)
 80013e0:	0019      	movs	r1, r3
 80013e2:	0010      	movs	r0, r2
 80013e4:	f7ff fac6 	bl	8000974 <LL_ADC_SetCommonPathInternalCh>
 80013e8:	e07a      	b.n	80014e0 <HAL_ADC_ConfigChannel+0x398>
                                         LL_ADC_PATH_INTERNAL_VBAT | tmp_config_internal_channel);
        }
        else if ((pConfig->Channel == ADC_CHANNEL_VREFINT) &&
 80013ea:	683b      	ldr	r3, [r7, #0]
 80013ec:	681b      	ldr	r3, [r3, #0]
 80013ee:	4a33      	ldr	r2, [pc, #204]	; (80014bc <HAL_ADC_ConfigChannel+0x374>)
 80013f0:	4293      	cmp	r3, r2
 80013f2:	d000      	beq.n	80013f6 <HAL_ADC_ConfigChannel+0x2ae>
 80013f4:	e074      	b.n	80014e0 <HAL_ADC_ConfigChannel+0x398>
                 ((tmp_config_internal_channel & LL_ADC_PATH_INTERNAL_VREFINT) == 0UL))
 80013f6:	693a      	ldr	r2, [r7, #16]
 80013f8:	2380      	movs	r3, #128	; 0x80
 80013fa:	03db      	lsls	r3, r3, #15
 80013fc:	4013      	ands	r3, r2
        else if ((pConfig->Channel == ADC_CHANNEL_VREFINT) &&
 80013fe:	d000      	beq.n	8001402 <HAL_ADC_ConfigChannel+0x2ba>
 8001400:	e06e      	b.n	80014e0 <HAL_ADC_ConfigChannel+0x398>
        {
          LL_ADC_SetCommonPathInternalCh(__LL_ADC_COMMON_INSTANCE(hadc->Instance),
 8001402:	693b      	ldr	r3, [r7, #16]
 8001404:	2280      	movs	r2, #128	; 0x80
 8001406:	03d2      	lsls	r2, r2, #15
 8001408:	4313      	orrs	r3, r2
 800140a:	4a27      	ldr	r2, [pc, #156]	; (80014a8 <HAL_ADC_ConfigChannel+0x360>)
 800140c:	0019      	movs	r1, r3
 800140e:	0010      	movs	r0, r2
 8001410:	f7ff fab0 	bl	8000974 <LL_ADC_SetCommonPathInternalCh>
 8001414:	e064      	b.n	80014e0 <HAL_ADC_ConfigChannel+0x398>
      /* Regular sequencer configuration */
      /* Note: Case of sequencer set to fully configurable:                   */
      /*       Sequencer rank cannot be disabled, only affected to            */
      /*       another channel.                                               */
      /*       To remove a rank, use parameter 'NbrOfConversion".             */
      if ((hadc->Init.ScanConvMode == ADC_SCAN_SEQ_FIXED)       ||
 8001416:	687b      	ldr	r3, [r7, #4]
 8001418:	691a      	ldr	r2, [r3, #16]
 800141a:	2380      	movs	r3, #128	; 0x80
 800141c:	061b      	lsls	r3, r3, #24
 800141e:	429a      	cmp	r2, r3
 8001420:	d004      	beq.n	800142c <HAL_ADC_ConfigChannel+0x2e4>
          (hadc->Init.ScanConvMode == ADC_SCAN_SEQ_FIXED_BACKWARD))
 8001422:	687b      	ldr	r3, [r7, #4]
 8001424:	691b      	ldr	r3, [r3, #16]
      if ((hadc->Init.ScanConvMode == ADC_SCAN_SEQ_FIXED)       ||
 8001426:	4a1f      	ldr	r2, [pc, #124]	; (80014a4 <HAL_ADC_ConfigChannel+0x35c>)
 8001428:	4293      	cmp	r3, r2
 800142a:	d107      	bne.n	800143c <HAL_ADC_ConfigChannel+0x2f4>
      {
        /* Sequencer set to not fully configurable:                           */
        /* Reset the channel by disabling the corresponding bitfield.         */
        LL_ADC_REG_SetSequencerChRem(hadc->Instance, pConfig->Channel);
 800142c:	687b      	ldr	r3, [r7, #4]
 800142e:	681a      	ldr	r2, [r3, #0]
 8001430:	683b      	ldr	r3, [r7, #0]
 8001432:	681b      	ldr	r3, [r3, #0]
 8001434:	0019      	movs	r1, r3
 8001436:	0010      	movs	r0, r2
 8001438:	f7ff fb1c 	bl	8000a74 <LL_ADC_REG_SetSequencerChRem>
      }

      /* Management of internal measurement channels: Vbat/VrefInt/TempSensor.  */
      /* If internal channel selected, enable dedicated internal buffers and    */
      /* paths.                                                                 */
      if (__LL_ADC_IS_CHANNEL_INTERNAL(pConfig->Channel))
 800143c:	683b      	ldr	r3, [r7, #0]
 800143e:	681b      	ldr	r3, [r3, #0]
 8001440:	2b00      	cmp	r3, #0
 8001442:	da4d      	bge.n	80014e0 <HAL_ADC_ConfigChannel+0x398>
      {
        tmp_config_internal_channel = LL_ADC_GetCommonPathInternalCh(__LL_ADC_COMMON_INSTANCE(hadc->Instance));
 8001444:	4b18      	ldr	r3, [pc, #96]	; (80014a8 <HAL_ADC_ConfigChannel+0x360>)
 8001446:	0018      	movs	r0, r3
 8001448:	f7ff faa8 	bl	800099c <LL_ADC_GetCommonPathInternalCh>
 800144c:	0003      	movs	r3, r0
 800144e:	613b      	str	r3, [r7, #16]

        if (pConfig->Channel == ADC_CHANNEL_TEMPSENSOR)
 8001450:	683b      	ldr	r3, [r7, #0]
 8001452:	681b      	ldr	r3, [r3, #0]
 8001454:	4a15      	ldr	r2, [pc, #84]	; (80014ac <HAL_ADC_ConfigChannel+0x364>)
 8001456:	4293      	cmp	r3, r2
 8001458:	d108      	bne.n	800146c <HAL_ADC_ConfigChannel+0x324>
        {
          LL_ADC_SetCommonPathInternalCh(__LL_ADC_COMMON_INSTANCE(hadc->Instance),
 800145a:	693b      	ldr	r3, [r7, #16]
 800145c:	4a18      	ldr	r2, [pc, #96]	; (80014c0 <HAL_ADC_ConfigChannel+0x378>)
 800145e:	4013      	ands	r3, r2
 8001460:	4a11      	ldr	r2, [pc, #68]	; (80014a8 <HAL_ADC_ConfigChannel+0x360>)
 8001462:	0019      	movs	r1, r3
 8001464:	0010      	movs	r0, r2
 8001466:	f7ff fa85 	bl	8000974 <LL_ADC_SetCommonPathInternalCh>
 800146a:	e039      	b.n	80014e0 <HAL_ADC_ConfigChannel+0x398>
                                         ~LL_ADC_PATH_INTERNAL_TEMPSENSOR & tmp_config_internal_channel);
        }
        else if (pConfig->Channel == ADC_CHANNEL_VBAT)
 800146c:	683b      	ldr	r3, [r7, #0]
 800146e:	681b      	ldr	r3, [r3, #0]
 8001470:	4a11      	ldr	r2, [pc, #68]	; (80014b8 <HAL_ADC_ConfigChannel+0x370>)
 8001472:	4293      	cmp	r3, r2
 8001474:	d108      	bne.n	8001488 <HAL_ADC_ConfigChannel+0x340>
        {
          LL_ADC_SetCommonPathInternalCh(__LL_ADC_COMMON_INSTANCE(hadc->Instance),
 8001476:	693b      	ldr	r3, [r7, #16]
 8001478:	4a12      	ldr	r2, [pc, #72]	; (80014c4 <HAL_ADC_ConfigChannel+0x37c>)
 800147a:	4013      	ands	r3, r2
 800147c:	4a0a      	ldr	r2, [pc, #40]	; (80014a8 <HAL_ADC_ConfigChannel+0x360>)
 800147e:	0019      	movs	r1, r3
 8001480:	0010      	movs	r0, r2
 8001482:	f7ff fa77 	bl	8000974 <LL_ADC_SetCommonPathInternalCh>
 8001486:	e02b      	b.n	80014e0 <HAL_ADC_ConfigChannel+0x398>
                                         ~LL_ADC_PATH_INTERNAL_VBAT & tmp_config_internal_channel);
        }
        else if (pConfig->Channel == ADC_CHANNEL_VREFINT)
 8001488:	683b      	ldr	r3, [r7, #0]
 800148a:	681b      	ldr	r3, [r3, #0]
 800148c:	4a0b      	ldr	r2, [pc, #44]	; (80014bc <HAL_ADC_ConfigChannel+0x374>)
 800148e:	4293      	cmp	r3, r2
 8001490:	d126      	bne.n	80014e0 <HAL_ADC_ConfigChannel+0x398>
        {
          LL_ADC_SetCommonPathInternalCh(__LL_ADC_COMMON_INSTANCE(hadc->Instance),
 8001492:	693b      	ldr	r3, [r7, #16]
 8001494:	4a0c      	ldr	r2, [pc, #48]	; (80014c8 <HAL_ADC_ConfigChannel+0x380>)
 8001496:	4013      	ands	r3, r2
 8001498:	4a03      	ldr	r2, [pc, #12]	; (80014a8 <HAL_ADC_ConfigChannel+0x360>)
 800149a:	0019      	movs	r1, r3
 800149c:	0010      	movs	r0, r2
 800149e:	f7ff fa69 	bl	8000974 <LL_ADC_SetCommonPathInternalCh>
 80014a2:	e01d      	b.n	80014e0 <HAL_ADC_ConfigChannel+0x398>
 80014a4:	80000004 	.word	0x80000004
 80014a8:	40012708 	.word	0x40012708
 80014ac:	b0001000 	.word	0xb0001000
 80014b0:	20000000 	.word	0x20000000
 80014b4:	00030d40 	.word	0x00030d40
 80014b8:	b8004000 	.word	0xb8004000
 80014bc:	b4002000 	.word	0xb4002000
 80014c0:	ff7fffff 	.word	0xff7fffff
 80014c4:	feffffff 	.word	0xfeffffff
 80014c8:	ffbfffff 	.word	0xffbfffff
  /* channel could be done on neither of the channel configuration structure  */
  /* parameters.                                                              */
  else
  {
    /* Update ADC state machine to error */
    SET_BIT(hadc->State, HAL_ADC_STATE_ERROR_CONFIG);
 80014cc:	687b      	ldr	r3, [r7, #4]
 80014ce:	6d9b      	ldr	r3, [r3, #88]	; 0x58
 80014d0:	2220      	movs	r2, #32
 80014d2:	431a      	orrs	r2, r3
 80014d4:	687b      	ldr	r3, [r7, #4]
 80014d6:	659a      	str	r2, [r3, #88]	; 0x58

    tmp_hal_status = HAL_ERROR;
 80014d8:	2317      	movs	r3, #23
 80014da:	18fb      	adds	r3, r7, r3
 80014dc:	2201      	movs	r2, #1
 80014de:	701a      	strb	r2, [r3, #0]
  }

  __HAL_UNLOCK(hadc);
 80014e0:	687b      	ldr	r3, [r7, #4]
 80014e2:	2254      	movs	r2, #84	; 0x54
 80014e4:	2100      	movs	r1, #0
 80014e6:	5499      	strb	r1, [r3, r2]

  return tmp_hal_status;
 80014e8:	2317      	movs	r3, #23
 80014ea:	18fb      	adds	r3, r7, r3
 80014ec:	781b      	ldrb	r3, [r3, #0]
}
 80014ee:	0018      	movs	r0, r3
 80014f0:	46bd      	mov	sp, r7
 80014f2:	b006      	add	sp, #24
 80014f4:	bd80      	pop	{r7, pc}
 80014f6:	46c0      	nop			; (mov r8, r8)

080014f8 <ADC_Enable>:
  *         and voltage regulator must be enabled (done into HAL_ADC_Init()).
  * @param hadc ADC handle
  * @retval HAL status.
  */
HAL_StatusTypeDef ADC_Enable(ADC_HandleTypeDef *hadc)
{
 80014f8:	b580      	push	{r7, lr}
 80014fa:	b084      	sub	sp, #16
 80014fc:	af00      	add	r7, sp, #0
 80014fe:	6078      	str	r0, [r7, #4]
  uint32_t tickstart;
  __IO uint32_t wait_loop_index = 0UL;
 8001500:	2300      	movs	r3, #0
 8001502:	60bb      	str	r3, [r7, #8]

  /* ADC enable and wait for ADC ready (in case of ADC is disabled or         */
  /* enabling phase not yet completed: flag ADC ready not yet set).           */
  /* Timeout implemented to not be stuck if ADC cannot be enabled (possible   */
  /* causes: ADC clock not running, ...).                                     */
  if (LL_ADC_IsEnabled(hadc->Instance) == 0UL)
 8001504:	687b      	ldr	r3, [r7, #4]
 8001506:	681b      	ldr	r3, [r3, #0]
 8001508:	0018      	movs	r0, r3
 800150a:	f7ff fb1b 	bl	8000b44 <LL_ADC_IsEnabled>
 800150e:	1e03      	subs	r3, r0, #0
 8001510:	d000      	beq.n	8001514 <ADC_Enable+0x1c>
 8001512:	e069      	b.n	80015e8 <ADC_Enable+0xf0>
  {
    /* Check if conditions to enable the ADC are fulfilled */
    if ((hadc->Instance->CR & (ADC_CR_ADCAL | ADC_CR_ADSTP | ADC_CR_ADSTART | ADC_CR_ADDIS | ADC_CR_ADEN)) != 0UL)
 8001514:	687b      	ldr	r3, [r7, #4]
 8001516:	681b      	ldr	r3, [r3, #0]
 8001518:	689b      	ldr	r3, [r3, #8]
 800151a:	4a36      	ldr	r2, [pc, #216]	; (80015f4 <ADC_Enable+0xfc>)
 800151c:	4013      	ands	r3, r2
 800151e:	d00d      	beq.n	800153c <ADC_Enable+0x44>
    {
      /* Update ADC state machine to error */
      SET_BIT(hadc->State, HAL_ADC_STATE_ERROR_INTERNAL);
 8001520:	687b      	ldr	r3, [r7, #4]
 8001522:	6d9b      	ldr	r3, [r3, #88]	; 0x58
 8001524:	2210      	movs	r2, #16
 8001526:	431a      	orrs	r2, r3
 8001528:	687b      	ldr	r3, [r7, #4]
 800152a:	659a      	str	r2, [r3, #88]	; 0x58

      /* Set ADC error code to ADC peripheral internal error */
      SET_BIT(hadc->ErrorCode, HAL_ADC_ERROR_INTERNAL);
 800152c:	687b      	ldr	r3, [r7, #4]
 800152e:	6ddb      	ldr	r3, [r3, #92]	; 0x5c
 8001530:	2201      	movs	r2, #1
 8001532:	431a      	orrs	r2, r3
 8001534:	687b      	ldr	r3, [r7, #4]
 8001536:	65da      	str	r2, [r3, #92]	; 0x5c

      return HAL_ERROR;
 8001538:	2301      	movs	r3, #1
 800153a:	e056      	b.n	80015ea <ADC_Enable+0xf2>
    }

    /* Enable the ADC peripheral */
    LL_ADC_Enable(hadc->Instance);
 800153c:	687b      	ldr	r3, [r7, #4]
 800153e:	681b      	ldr	r3, [r3, #0]
 8001540:	0018      	movs	r0, r3
 8001542:	f7ff faed 	bl	8000b20 <LL_ADC_Enable>

    if ((LL_ADC_GetCommonPathInternalCh(__LL_ADC_COMMON_INSTANCE(hadc->Instance)) & LL_ADC_PATH_INTERNAL_TEMPSENSOR) != 0UL)
 8001546:	4b2c      	ldr	r3, [pc, #176]	; (80015f8 <ADC_Enable+0x100>)
 8001548:	0018      	movs	r0, r3
 800154a:	f7ff fa27 	bl	800099c <LL_ADC_GetCommonPathInternalCh>
 800154e:	0002      	movs	r2, r0
 8001550:	2380      	movs	r3, #128	; 0x80
 8001552:	041b      	lsls	r3, r3, #16
 8001554:	4013      	ands	r3, r2
 8001556:	d00f      	beq.n	8001578 <ADC_Enable+0x80>
      /* Delay for temperature sensor buffer stabilization time */
      /* Wait loop initialization and execution */
      /* Note: Variable divided by 2 to compensate partially              */
      /*       CPU processing cycles, scaling in us split to not          */
      /*       exceed 32 bits register capacity and handle low frequency. */
      wait_loop_index = ((LL_ADC_DELAY_TEMPSENSOR_BUFFER_STAB_US / 10UL) * ((SystemCoreClock / (100000UL * 2UL)) + 1UL));
 8001558:	4b28      	ldr	r3, [pc, #160]	; (80015fc <ADC_Enable+0x104>)
 800155a:	681b      	ldr	r3, [r3, #0]
 800155c:	4928      	ldr	r1, [pc, #160]	; (8001600 <ADC_Enable+0x108>)
 800155e:	0018      	movs	r0, r3
 8001560:	f7fe fdd0 	bl	8000104 <__udivsi3>
 8001564:	0003      	movs	r3, r0
 8001566:	3301      	adds	r3, #1
 8001568:	60bb      	str	r3, [r7, #8]
      while (wait_loop_index != 0UL)
 800156a:	e002      	b.n	8001572 <ADC_Enable+0x7a>
      {
        wait_loop_index--;
 800156c:	68bb      	ldr	r3, [r7, #8]
 800156e:	3b01      	subs	r3, #1
 8001570:	60bb      	str	r3, [r7, #8]
      while (wait_loop_index != 0UL)
 8001572:	68bb      	ldr	r3, [r7, #8]
 8001574:	2b00      	cmp	r3, #0
 8001576:	d1f9      	bne.n	800156c <ADC_Enable+0x74>
      }
    }

    /* If low power mode AutoPowerOff is enabled, power-on/off phases are     */
    /* performed automatically by hardware and flag ADC ready is not set.     */
    if (hadc->Init.LowPowerAutoPowerOff != ENABLE)
 8001578:	687b      	ldr	r3, [r7, #4]
 800157a:	7e5b      	ldrb	r3, [r3, #25]
 800157c:	2b01      	cmp	r3, #1
 800157e:	d033      	beq.n	80015e8 <ADC_Enable+0xf0>
    {
      /* Wait for ADC effectively enabled */
      tickstart = HAL_GetTick();
 8001580:	f7ff f9b4 	bl	80008ec <HAL_GetTick>
 8001584:	0003      	movs	r3, r0
 8001586:	60fb      	str	r3, [r7, #12]

      while (__HAL_ADC_GET_FLAG(hadc, ADC_FLAG_RDY) == 0UL)
 8001588:	e027      	b.n	80015da <ADC_Enable+0xe2>
            The workaround is to continue setting ADEN until ADRDY is becomes 1.
            Additionally, ADC_ENABLE_TIMEOUT is defined to encompass this
            4 ADC clock cycle duration */
        /* Note: Test of ADC enabled required due to hardware constraint to     */
        /*       not enable ADC if already enabled.                             */
        if (LL_ADC_IsEnabled(hadc->Instance) == 0UL)
 800158a:	687b      	ldr	r3, [r7, #4]
 800158c:	681b      	ldr	r3, [r3, #0]
 800158e:	0018      	movs	r0, r3
 8001590:	f7ff fad8 	bl	8000b44 <LL_ADC_IsEnabled>
 8001594:	1e03      	subs	r3, r0, #0
 8001596:	d104      	bne.n	80015a2 <ADC_Enable+0xaa>
        {
          LL_ADC_Enable(hadc->Instance);
 8001598:	687b      	ldr	r3, [r7, #4]
 800159a:	681b      	ldr	r3, [r3, #0]
 800159c:	0018      	movs	r0, r3
 800159e:	f7ff fabf 	bl	8000b20 <LL_ADC_Enable>
        }

        if ((HAL_GetTick() - tickstart) > ADC_ENABLE_TIMEOUT)
 80015a2:	f7ff f9a3 	bl	80008ec <HAL_GetTick>
 80015a6:	0002      	movs	r2, r0
 80015a8:	68fb      	ldr	r3, [r7, #12]
 80015aa:	1ad3      	subs	r3, r2, r3
 80015ac:	2b02      	cmp	r3, #2
 80015ae:	d914      	bls.n	80015da <ADC_Enable+0xe2>
        {
          /* New check to avoid false timeout detection in case of preemption */
          if (__HAL_ADC_GET_FLAG(hadc, ADC_FLAG_RDY) == 0UL)
 80015b0:	687b      	ldr	r3, [r7, #4]
 80015b2:	681b      	ldr	r3, [r3, #0]
 80015b4:	681b      	ldr	r3, [r3, #0]
 80015b6:	2201      	movs	r2, #1
 80015b8:	4013      	ands	r3, r2
 80015ba:	2b01      	cmp	r3, #1
 80015bc:	d00d      	beq.n	80015da <ADC_Enable+0xe2>
          {
            /* Update ADC state machine to error */
            SET_BIT(hadc->State, HAL_ADC_STATE_ERROR_INTERNAL);
 80015be:	687b      	ldr	r3, [r7, #4]
 80015c0:	6d9b      	ldr	r3, [r3, #88]	; 0x58
 80015c2:	2210      	movs	r2, #16
 80015c4:	431a      	orrs	r2, r3
 80015c6:	687b      	ldr	r3, [r7, #4]
 80015c8:	659a      	str	r2, [r3, #88]	; 0x58

            /* Set ADC error code to ADC peripheral internal error */
            SET_BIT(hadc->ErrorCode, HAL_ADC_ERROR_INTERNAL);
 80015ca:	687b      	ldr	r3, [r7, #4]
 80015cc:	6ddb      	ldr	r3, [r3, #92]	; 0x5c
 80015ce:	2201      	movs	r2, #1
 80015d0:	431a      	orrs	r2, r3
 80015d2:	687b      	ldr	r3, [r7, #4]
 80015d4:	65da      	str	r2, [r3, #92]	; 0x5c

            return HAL_ERROR;
 80015d6:	2301      	movs	r3, #1
 80015d8:	e007      	b.n	80015ea <ADC_Enable+0xf2>
      while (__HAL_ADC_GET_FLAG(hadc, ADC_FLAG_RDY) == 0UL)
 80015da:	687b      	ldr	r3, [r7, #4]
 80015dc:	681b      	ldr	r3, [r3, #0]
 80015de:	681b      	ldr	r3, [r3, #0]
 80015e0:	2201      	movs	r2, #1
 80015e2:	4013      	ands	r3, r2
 80015e4:	2b01      	cmp	r3, #1
 80015e6:	d1d0      	bne.n	800158a <ADC_Enable+0x92>
      }
    }
  }

  /* Return HAL status */
  return HAL_OK;
 80015e8:	2300      	movs	r3, #0
}
 80015ea:	0018      	movs	r0, r3
 80015ec:	46bd      	mov	sp, r7
 80015ee:	b004      	add	sp, #16
 80015f0:	bd80      	pop	{r7, pc}
 80015f2:	46c0      	nop			; (mov r8, r8)
 80015f4:	80000017 	.word	0x80000017
 80015f8:	40012708 	.word	0x40012708
 80015fc:	20000000 	.word	0x20000000
 8001600:	00030d40 	.word	0x00030d40

08001604 <__NVIC_SetPriority>:
  \param [in]      IRQn  Interrupt number.
  \param [in]  priority  Priority to set.
  \note    The priority cannot be set for every processor exception.
 */
__STATIC_INLINE void __NVIC_SetPriority(IRQn_Type IRQn, uint32_t priority)
{
 8001604:	b590      	push	{r4, r7, lr}
 8001606:	b083      	sub	sp, #12
 8001608:	af00      	add	r7, sp, #0
 800160a:	0002      	movs	r2, r0
 800160c:	6039      	str	r1, [r7, #0]
 800160e:	1dfb      	adds	r3, r7, #7
 8001610:	701a      	strb	r2, [r3, #0]
  if ((int32_t)(IRQn) >= 0)
 8001612:	1dfb      	adds	r3, r7, #7
 8001614:	781b      	ldrb	r3, [r3, #0]
 8001616:	2b7f      	cmp	r3, #127	; 0x7f
 8001618:	d828      	bhi.n	800166c <__NVIC_SetPriority+0x68>
  {
    NVIC->IP[_IP_IDX(IRQn)]  = ((uint32_t)(NVIC->IP[_IP_IDX(IRQn)]  & ~(0xFFUL << _BIT_SHIFT(IRQn))) |
 800161a:	4a2f      	ldr	r2, [pc, #188]	; (80016d8 <__NVIC_SetPriority+0xd4>)
 800161c:	1dfb      	adds	r3, r7, #7
 800161e:	781b      	ldrb	r3, [r3, #0]
 8001620:	b25b      	sxtb	r3, r3
 8001622:	089b      	lsrs	r3, r3, #2
 8001624:	33c0      	adds	r3, #192	; 0xc0
 8001626:	009b      	lsls	r3, r3, #2
 8001628:	589b      	ldr	r3, [r3, r2]
 800162a:	1dfa      	adds	r2, r7, #7
 800162c:	7812      	ldrb	r2, [r2, #0]
 800162e:	0011      	movs	r1, r2
 8001630:	2203      	movs	r2, #3
 8001632:	400a      	ands	r2, r1
 8001634:	00d2      	lsls	r2, r2, #3
 8001636:	21ff      	movs	r1, #255	; 0xff
 8001638:	4091      	lsls	r1, r2
 800163a:	000a      	movs	r2, r1
 800163c:	43d2      	mvns	r2, r2
 800163e:	401a      	ands	r2, r3
 8001640:	0011      	movs	r1, r2
       (((priority << (8U - __NVIC_PRIO_BITS)) & (uint32_t)0xFFUL) << _BIT_SHIFT(IRQn)));
 8001642:	683b      	ldr	r3, [r7, #0]
 8001644:	019b      	lsls	r3, r3, #6
 8001646:	22ff      	movs	r2, #255	; 0xff
 8001648:	401a      	ands	r2, r3
 800164a:	1dfb      	adds	r3, r7, #7
 800164c:	781b      	ldrb	r3, [r3, #0]
 800164e:	0018      	movs	r0, r3
 8001650:	2303      	movs	r3, #3
 8001652:	4003      	ands	r3, r0
 8001654:	00db      	lsls	r3, r3, #3
 8001656:	409a      	lsls	r2, r3
    NVIC->IP[_IP_IDX(IRQn)]  = ((uint32_t)(NVIC->IP[_IP_IDX(IRQn)]  & ~(0xFFUL << _BIT_SHIFT(IRQn))) |
 8001658:	481f      	ldr	r0, [pc, #124]	; (80016d8 <__NVIC_SetPriority+0xd4>)
 800165a:	1dfb      	adds	r3, r7, #7
 800165c:	781b      	ldrb	r3, [r3, #0]
 800165e:	b25b      	sxtb	r3, r3
 8001660:	089b      	lsrs	r3, r3, #2
 8001662:	430a      	orrs	r2, r1
 8001664:	33c0      	adds	r3, #192	; 0xc0
 8001666:	009b      	lsls	r3, r3, #2
 8001668:	501a      	str	r2, [r3, r0]
  else
  {
    SCB->SHP[_SHP_IDX(IRQn)] = ((uint32_t)(SCB->SHP[_SHP_IDX(IRQn)] & ~(0xFFUL << _BIT_SHIFT(IRQn))) |
       (((priority << (8U - __NVIC_PRIO_BITS)) & (uint32_t)0xFFUL) << _BIT_SHIFT(IRQn)));
  }
}
 800166a:	e031      	b.n	80016d0 <__NVIC_SetPriority+0xcc>
    SCB->SHP[_SHP_IDX(IRQn)] = ((uint32_t)(SCB->SHP[_SHP_IDX(IRQn)] & ~(0xFFUL << _BIT_SHIFT(IRQn))) |
 800166c:	4a1b      	ldr	r2, [pc, #108]	; (80016dc <__NVIC_SetPriority+0xd8>)
 800166e:	1dfb      	adds	r3, r7, #7
 8001670:	781b      	ldrb	r3, [r3, #0]
 8001672:	0019      	movs	r1, r3
 8001674:	230f      	movs	r3, #15
 8001676:	400b      	ands	r3, r1
 8001678:	3b08      	subs	r3, #8
 800167a:	089b      	lsrs	r3, r3, #2
 800167c:	3306      	adds	r3, #6
 800167e:	009b      	lsls	r3, r3, #2
 8001680:	18d3      	adds	r3, r2, r3
 8001682:	3304      	adds	r3, #4
 8001684:	681b      	ldr	r3, [r3, #0]
 8001686:	1dfa      	adds	r2, r7, #7
 8001688:	7812      	ldrb	r2, [r2, #0]
 800168a:	0011      	movs	r1, r2
 800168c:	2203      	movs	r2, #3
 800168e:	400a      	ands	r2, r1
 8001690:	00d2      	lsls	r2, r2, #3
 8001692:	21ff      	movs	r1, #255	; 0xff
 8001694:	4091      	lsls	r1, r2
 8001696:	000a      	movs	r2, r1
 8001698:	43d2      	mvns	r2, r2
 800169a:	401a      	ands	r2, r3
 800169c:	0011      	movs	r1, r2
       (((priority << (8U - __NVIC_PRIO_BITS)) & (uint32_t)0xFFUL) << _BIT_SHIFT(IRQn)));
 800169e:	683b      	ldr	r3, [r7, #0]
 80016a0:	019b      	lsls	r3, r3, #6
 80016a2:	22ff      	movs	r2, #255	; 0xff
 80016a4:	401a      	ands	r2, r3
 80016a6:	1dfb      	adds	r3, r7, #7
 80016a8:	781b      	ldrb	r3, [r3, #0]
 80016aa:	0018      	movs	r0, r3
 80016ac:	2303      	movs	r3, #3
 80016ae:	4003      	ands	r3, r0
 80016b0:	00db      	lsls	r3, r3, #3
 80016b2:	409a      	lsls	r2, r3
    SCB->SHP[_SHP_IDX(IRQn)] = ((uint32_t)(SCB->SHP[_SHP_IDX(IRQn)] & ~(0xFFUL << _BIT_SHIFT(IRQn))) |
 80016b4:	4809      	ldr	r0, [pc, #36]	; (80016dc <__NVIC_SetPriority+0xd8>)
 80016b6:	1dfb      	adds	r3, r7, #7
 80016b8:	781b      	ldrb	r3, [r3, #0]
 80016ba:	001c      	movs	r4, r3
 80016bc:	230f      	movs	r3, #15
 80016be:	4023      	ands	r3, r4
 80016c0:	3b08      	subs	r3, #8
 80016c2:	089b      	lsrs	r3, r3, #2
 80016c4:	430a      	orrs	r2, r1
 80016c6:	3306      	adds	r3, #6
 80016c8:	009b      	lsls	r3, r3, #2
 80016ca:	18c3      	adds	r3, r0, r3
 80016cc:	3304      	adds	r3, #4
 80016ce:	601a      	str	r2, [r3, #0]
}
 80016d0:	46c0      	nop			; (mov r8, r8)
 80016d2:	46bd      	mov	sp, r7
 80016d4:	b003      	add	sp, #12
 80016d6:	bd90      	pop	{r4, r7, pc}
 80016d8:	e000e100 	.word	0xe000e100
 80016dc:	e000ed00 	.word	0xe000ed00

080016e0 <SysTick_Config>:
  \note    When the variable <b>__Vendor_SysTickConfig</b> is set to 1, then the
           function <b>SysTick_Config</b> is not included. In this case, the file <b><i>device</i>.h</b>
           must contain a vendor-specific implementation of this function.
 */
__STATIC_INLINE uint32_t SysTick_Config(uint32_t ticks)
{
 80016e0:	b580      	push	{r7, lr}
 80016e2:	b082      	sub	sp, #8
 80016e4:	af00      	add	r7, sp, #0
 80016e6:	6078      	str	r0, [r7, #4]
  if ((ticks - 1UL) > SysTick_LOAD_RELOAD_Msk)
 80016e8:	687b      	ldr	r3, [r7, #4]
 80016ea:	1e5a      	subs	r2, r3, #1
 80016ec:	2380      	movs	r3, #128	; 0x80
 80016ee:	045b      	lsls	r3, r3, #17
 80016f0:	429a      	cmp	r2, r3
 80016f2:	d301      	bcc.n	80016f8 <SysTick_Config+0x18>
  {
    return (1UL);                                                   /* Reload value impossible */
 80016f4:	2301      	movs	r3, #1
 80016f6:	e010      	b.n	800171a <SysTick_Config+0x3a>
  }

  SysTick->LOAD  = (uint32_t)(ticks - 1UL);                         /* set reload register */
 80016f8:	4b0a      	ldr	r3, [pc, #40]	; (8001724 <SysTick_Config+0x44>)
 80016fa:	687a      	ldr	r2, [r7, #4]
 80016fc:	3a01      	subs	r2, #1
 80016fe:	605a      	str	r2, [r3, #4]
  NVIC_SetPriority (SysTick_IRQn, (1UL << __NVIC_PRIO_BITS) - 1UL); /* set Priority for Systick Interrupt */
 8001700:	2301      	movs	r3, #1
 8001702:	425b      	negs	r3, r3
 8001704:	2103      	movs	r1, #3
 8001706:	0018      	movs	r0, r3
 8001708:	f7ff ff7c 	bl	8001604 <__NVIC_SetPriority>
  SysTick->VAL   = 0UL;                                             /* Load the SysTick Counter Value */
 800170c:	4b05      	ldr	r3, [pc, #20]	; (8001724 <SysTick_Config+0x44>)
 800170e:	2200      	movs	r2, #0
 8001710:	609a      	str	r2, [r3, #8]
  SysTick->CTRL  = SysTick_CTRL_CLKSOURCE_Msk |
 8001712:	4b04      	ldr	r3, [pc, #16]	; (8001724 <SysTick_Config+0x44>)
 8001714:	2207      	movs	r2, #7
 8001716:	601a      	str	r2, [r3, #0]
                   SysTick_CTRL_TICKINT_Msk   |
                   SysTick_CTRL_ENABLE_Msk;                         /* Enable SysTick IRQ and SysTick Timer */
  return (0UL);                                                     /* Function successful */
 8001718:	2300      	movs	r3, #0
}
 800171a:	0018      	movs	r0, r3
 800171c:	46bd      	mov	sp, r7
 800171e:	b002      	add	sp, #8
 8001720:	bd80      	pop	{r7, pc}
 8001722:	46c0      	nop			; (mov r8, r8)
 8001724:	e000e010 	.word	0xe000e010

08001728 <HAL_NVIC_SetPriority>:
  *         with stm32g0xx devices, this parameter is a dummy value and it is ignored, because
  *         no subpriority supported in Cortex M0+ based products.
  * @retval None
  */
void HAL_NVIC_SetPriority(IRQn_Type IRQn, uint32_t PreemptPriority, uint32_t SubPriority)
{
 8001728:	b580      	push	{r7, lr}
 800172a:	b084      	sub	sp, #16
 800172c:	af00      	add	r7, sp, #0
 800172e:	60b9      	str	r1, [r7, #8]
 8001730:	607a      	str	r2, [r7, #4]
 8001732:	210f      	movs	r1, #15
 8001734:	187b      	adds	r3, r7, r1
 8001736:	1c02      	adds	r2, r0, #0
 8001738:	701a      	strb	r2, [r3, #0]
  /* Check the parameters */
  assert_param(IS_NVIC_PREEMPTION_PRIORITY(PreemptPriority));
  NVIC_SetPriority(IRQn,PreemptPriority);
 800173a:	68ba      	ldr	r2, [r7, #8]
 800173c:	187b      	adds	r3, r7, r1
 800173e:	781b      	ldrb	r3, [r3, #0]
 8001740:	b25b      	sxtb	r3, r3
 8001742:	0011      	movs	r1, r2
 8001744:	0018      	movs	r0, r3
 8001746:	f7ff ff5d 	bl	8001604 <__NVIC_SetPriority>
}
 800174a:	46c0      	nop			; (mov r8, r8)
 800174c:	46bd      	mov	sp, r7
 800174e:	b004      	add	sp, #16
 8001750:	bd80      	pop	{r7, pc}

08001752 <HAL_SYSTICK_Config>:
  * @param  TicksNumb Specifies the ticks Number of ticks between two interrupts.
  * @retval status:  - 0  Function succeeded.
  *                  - 1  Function failed.
  */
uint32_t HAL_SYSTICK_Config(uint32_t TicksNumb)
{
 8001752:	b580      	push	{r7, lr}
 8001754:	b082      	sub	sp, #8
 8001756:	af00      	add	r7, sp, #0
 8001758:	6078      	str	r0, [r7, #4]
  return SysTick_Config(TicksNumb);
 800175a:	687b      	ldr	r3, [r7, #4]
 800175c:	0018      	movs	r0, r3
 800175e:	f7ff ffbf 	bl	80016e0 <SysTick_Config>
 8001762:	0003      	movs	r3, r0
}
 8001764:	0018      	movs	r0, r3
 8001766:	46bd      	mov	sp, r7
 8001768:	b002      	add	sp, #8
 800176a:	bd80      	pop	{r7, pc}

0800176c <HAL_GPIO_Init>:
  * @param  GPIO_Init pointer to a GPIO_InitTypeDef structure that contains
  *         the configuration information for the specified GPIO peripheral.
  * @retval None
  */
void HAL_GPIO_Init(GPIO_TypeDef  *GPIOx, GPIO_InitTypeDef *GPIO_Init)
{
 800176c:	b580      	push	{r7, lr}
 800176e:	b086      	sub	sp, #24
 8001770:	af00      	add	r7, sp, #0
 8001772:	6078      	str	r0, [r7, #4]
 8001774:	6039      	str	r1, [r7, #0]
  uint32_t position = 0x00u;
 8001776:	2300      	movs	r3, #0
 8001778:	617b      	str	r3, [r7, #20]
  assert_param(IS_GPIO_ALL_INSTANCE(GPIOx));
  assert_param(IS_GPIO_PIN(GPIO_Init->Pin));
  assert_param(IS_GPIO_MODE(GPIO_Init->Mode));

  /* Configure the port pins */
  while (((GPIO_Init->Pin) >> position) != 0x00u)
 800177a:	e14d      	b.n	8001a18 <HAL_GPIO_Init+0x2ac>
  {
    /* Get current io position */
    iocurrent = (GPIO_Init->Pin) & (1uL << position);
 800177c:	683b      	ldr	r3, [r7, #0]
 800177e:	681b      	ldr	r3, [r3, #0]
 8001780:	2101      	movs	r1, #1
 8001782:	697a      	ldr	r2, [r7, #20]
 8001784:	4091      	lsls	r1, r2
 8001786:	000a      	movs	r2, r1
 8001788:	4013      	ands	r3, r2
 800178a:	60fb      	str	r3, [r7, #12]

    if (iocurrent != 0x00u)
 800178c:	68fb      	ldr	r3, [r7, #12]
 800178e:	2b00      	cmp	r3, #0
 8001790:	d100      	bne.n	8001794 <HAL_GPIO_Init+0x28>
 8001792:	e13e      	b.n	8001a12 <HAL_GPIO_Init+0x2a6>
    {
      /*--------------------- GPIO Mode Configuration ------------------------*/
      /* In case of Output or Alternate function mode selection */
      if (((GPIO_Init->Mode & GPIO_MODE) == MODE_OUTPUT) || ((GPIO_Init->Mode & GPIO_MODE) == MODE_AF))
 8001794:	683b      	ldr	r3, [r7, #0]
 8001796:	685b      	ldr	r3, [r3, #4]
 8001798:	2203      	movs	r2, #3
 800179a:	4013      	ands	r3, r2
 800179c:	2b01      	cmp	r3, #1
 800179e:	d005      	beq.n	80017ac <HAL_GPIO_Init+0x40>
 80017a0:	683b      	ldr	r3, [r7, #0]
 80017a2:	685b      	ldr	r3, [r3, #4]
 80017a4:	2203      	movs	r2, #3
 80017a6:	4013      	ands	r3, r2
 80017a8:	2b02      	cmp	r3, #2
 80017aa:	d130      	bne.n	800180e <HAL_GPIO_Init+0xa2>
      {
        /* Check the Speed parameter */
        assert_param(IS_GPIO_SPEED(GPIO_Init->Speed));

        /* Configure the IO Speed */
        temp = GPIOx->OSPEEDR;
 80017ac:	687b      	ldr	r3, [r7, #4]
 80017ae:	689b      	ldr	r3, [r3, #8]
 80017b0:	613b      	str	r3, [r7, #16]
        temp &= ~(GPIO_OSPEEDR_OSPEED0 << (position * 2u));
 80017b2:	697b      	ldr	r3, [r7, #20]
 80017b4:	005b      	lsls	r3, r3, #1
 80017b6:	2203      	movs	r2, #3
 80017b8:	409a      	lsls	r2, r3
 80017ba:	0013      	movs	r3, r2
 80017bc:	43da      	mvns	r2, r3
 80017be:	693b      	ldr	r3, [r7, #16]
 80017c0:	4013      	ands	r3, r2
 80017c2:	613b      	str	r3, [r7, #16]
        temp |= (GPIO_Init->Speed << (position * 2u));
 80017c4:	683b      	ldr	r3, [r7, #0]
 80017c6:	68da      	ldr	r2, [r3, #12]
 80017c8:	697b      	ldr	r3, [r7, #20]
 80017ca:	005b      	lsls	r3, r3, #1
 80017cc:	409a      	lsls	r2, r3
 80017ce:	0013      	movs	r3, r2
 80017d0:	693a      	ldr	r2, [r7, #16]
 80017d2:	4313      	orrs	r3, r2
 80017d4:	613b      	str	r3, [r7, #16]
        GPIOx->OSPEEDR = temp;
 80017d6:	687b      	ldr	r3, [r7, #4]
 80017d8:	693a      	ldr	r2, [r7, #16]
 80017da:	609a      	str	r2, [r3, #8]

        /* Configure the IO Output Type */
        temp = GPIOx->OTYPER;
 80017dc:	687b      	ldr	r3, [r7, #4]
 80017de:	685b      	ldr	r3, [r3, #4]
 80017e0:	613b      	str	r3, [r7, #16]
        temp &= ~(GPIO_OTYPER_OT0 << position) ;
 80017e2:	2201      	movs	r2, #1
 80017e4:	697b      	ldr	r3, [r7, #20]
 80017e6:	409a      	lsls	r2, r3
 80017e8:	0013      	movs	r3, r2
 80017ea:	43da      	mvns	r2, r3
 80017ec:	693b      	ldr	r3, [r7, #16]
 80017ee:	4013      	ands	r3, r2
 80017f0:	613b      	str	r3, [r7, #16]
        temp |= (((GPIO_Init->Mode & OUTPUT_TYPE) >> OUTPUT_TYPE_Pos) << position);
 80017f2:	683b      	ldr	r3, [r7, #0]
 80017f4:	685b      	ldr	r3, [r3, #4]
 80017f6:	091b      	lsrs	r3, r3, #4
 80017f8:	2201      	movs	r2, #1
 80017fa:	401a      	ands	r2, r3
 80017fc:	697b      	ldr	r3, [r7, #20]
 80017fe:	409a      	lsls	r2, r3
 8001800:	0013      	movs	r3, r2
 8001802:	693a      	ldr	r2, [r7, #16]
 8001804:	4313      	orrs	r3, r2
 8001806:	613b      	str	r3, [r7, #16]
        GPIOx->OTYPER = temp;
 8001808:	687b      	ldr	r3, [r7, #4]
 800180a:	693a      	ldr	r2, [r7, #16]
 800180c:	605a      	str	r2, [r3, #4]
      }

      if ((GPIO_Init->Mode & GPIO_MODE) != MODE_ANALOG)
 800180e:	683b      	ldr	r3, [r7, #0]
 8001810:	685b      	ldr	r3, [r3, #4]
 8001812:	2203      	movs	r2, #3
 8001814:	4013      	ands	r3, r2
 8001816:	2b03      	cmp	r3, #3
 8001818:	d017      	beq.n	800184a <HAL_GPIO_Init+0xde>
      {
        /* Check the Pull parameter */
        assert_param(IS_GPIO_PULL(GPIO_Init->Pull));

        /* Activate the Pull-up or Pull down resistor for the current IO */
        temp = GPIOx->PUPDR;
 800181a:	687b      	ldr	r3, [r7, #4]
 800181c:	68db      	ldr	r3, [r3, #12]
 800181e:	613b      	str	r3, [r7, #16]
        temp &= ~(GPIO_PUPDR_PUPD0 << (position * 2u));
 8001820:	697b      	ldr	r3, [r7, #20]
 8001822:	005b      	lsls	r3, r3, #1
 8001824:	2203      	movs	r2, #3
 8001826:	409a      	lsls	r2, r3
 8001828:	0013      	movs	r3, r2
 800182a:	43da      	mvns	r2, r3
 800182c:	693b      	ldr	r3, [r7, #16]
 800182e:	4013      	ands	r3, r2
 8001830:	613b      	str	r3, [r7, #16]
        temp |= ((GPIO_Init->Pull) << (position * 2u));
 8001832:	683b      	ldr	r3, [r7, #0]
 8001834:	689a      	ldr	r2, [r3, #8]
 8001836:	697b      	ldr	r3, [r7, #20]
 8001838:	005b      	lsls	r3, r3, #1
 800183a:	409a      	lsls	r2, r3
 800183c:	0013      	movs	r3, r2
 800183e:	693a      	ldr	r2, [r7, #16]
 8001840:	4313      	orrs	r3, r2
 8001842:	613b      	str	r3, [r7, #16]
        GPIOx->PUPDR = temp;
 8001844:	687b      	ldr	r3, [r7, #4]
 8001846:	693a      	ldr	r2, [r7, #16]
 8001848:	60da      	str	r2, [r3, #12]
      }

      /* In case of Alternate function mode selection */
      if ((GPIO_Init->Mode & GPIO_MODE) == MODE_AF)
 800184a:	683b      	ldr	r3, [r7, #0]
 800184c:	685b      	ldr	r3, [r3, #4]
 800184e:	2203      	movs	r2, #3
 8001850:	4013      	ands	r3, r2
 8001852:	2b02      	cmp	r3, #2
 8001854:	d123      	bne.n	800189e <HAL_GPIO_Init+0x132>
        /* Check the Alternate function parameters */
        assert_param(IS_GPIO_AF_INSTANCE(GPIOx));
        assert_param(IS_GPIO_AF(GPIO_Init->Alternate));

        /* Configure Alternate function mapped with the current IO */
        temp = GPIOx->AFR[position >> 3u];
 8001856:	697b      	ldr	r3, [r7, #20]
 8001858:	08da      	lsrs	r2, r3, #3
 800185a:	687b      	ldr	r3, [r7, #4]
 800185c:	3208      	adds	r2, #8
 800185e:	0092      	lsls	r2, r2, #2
 8001860:	58d3      	ldr	r3, [r2, r3]
 8001862:	613b      	str	r3, [r7, #16]
        temp &= ~(0xFu << ((position & 0x07u) * 4u));
 8001864:	697b      	ldr	r3, [r7, #20]
 8001866:	2207      	movs	r2, #7
 8001868:	4013      	ands	r3, r2
 800186a:	009b      	lsls	r3, r3, #2
 800186c:	220f      	movs	r2, #15
 800186e:	409a      	lsls	r2, r3
 8001870:	0013      	movs	r3, r2
 8001872:	43da      	mvns	r2, r3
 8001874:	693b      	ldr	r3, [r7, #16]
 8001876:	4013      	ands	r3, r2
 8001878:	613b      	str	r3, [r7, #16]
        temp |= ((GPIO_Init->Alternate) << ((position & 0x07u) * 4u));
 800187a:	683b      	ldr	r3, [r7, #0]
 800187c:	691a      	ldr	r2, [r3, #16]
 800187e:	697b      	ldr	r3, [r7, #20]
 8001880:	2107      	movs	r1, #7
 8001882:	400b      	ands	r3, r1
 8001884:	009b      	lsls	r3, r3, #2
 8001886:	409a      	lsls	r2, r3
 8001888:	0013      	movs	r3, r2
 800188a:	693a      	ldr	r2, [r7, #16]
 800188c:	4313      	orrs	r3, r2
 800188e:	613b      	str	r3, [r7, #16]
        GPIOx->AFR[position >> 3u] = temp;
 8001890:	697b      	ldr	r3, [r7, #20]
 8001892:	08da      	lsrs	r2, r3, #3
 8001894:	687b      	ldr	r3, [r7, #4]
 8001896:	3208      	adds	r2, #8
 8001898:	0092      	lsls	r2, r2, #2
 800189a:	6939      	ldr	r1, [r7, #16]
 800189c:	50d1      	str	r1, [r2, r3]
      }

      /* Configure IO Direction mode (Input, Output, Alternate or Analog) */
      temp = GPIOx->MODER;
 800189e:	687b      	ldr	r3, [r7, #4]
 80018a0:	681b      	ldr	r3, [r3, #0]
 80018a2:	613b      	str	r3, [r7, #16]
      temp &= ~(GPIO_MODER_MODE0 << (position * 2u));
 80018a4:	697b      	ldr	r3, [r7, #20]
 80018a6:	005b      	lsls	r3, r3, #1
 80018a8:	2203      	movs	r2, #3
 80018aa:	409a      	lsls	r2, r3
 80018ac:	0013      	movs	r3, r2
 80018ae:	43da      	mvns	r2, r3
 80018b0:	693b      	ldr	r3, [r7, #16]
 80018b2:	4013      	ands	r3, r2
 80018b4:	613b      	str	r3, [r7, #16]
      temp |= ((GPIO_Init->Mode & GPIO_MODE) << (position * 2u));
 80018b6:	683b      	ldr	r3, [r7, #0]
 80018b8:	685b      	ldr	r3, [r3, #4]
 80018ba:	2203      	movs	r2, #3
 80018bc:	401a      	ands	r2, r3
 80018be:	697b      	ldr	r3, [r7, #20]
 80018c0:	005b      	lsls	r3, r3, #1
 80018c2:	409a      	lsls	r2, r3
 80018c4:	0013      	movs	r3, r2
 80018c6:	693a      	ldr	r2, [r7, #16]
 80018c8:	4313      	orrs	r3, r2
 80018ca:	613b      	str	r3, [r7, #16]
      GPIOx->MODER = temp;
 80018cc:	687b      	ldr	r3, [r7, #4]
 80018ce:	693a      	ldr	r2, [r7, #16]
 80018d0:	601a      	str	r2, [r3, #0]

      /*--------------------- EXTI Mode Configuration ------------------------*/
      /* Configure the External Interrupt or event for the current IO */
      if ((GPIO_Init->Mode & EXTI_MODE) != 0x00u)
 80018d2:	683b      	ldr	r3, [r7, #0]
 80018d4:	685a      	ldr	r2, [r3, #4]
 80018d6:	23c0      	movs	r3, #192	; 0xc0
 80018d8:	029b      	lsls	r3, r3, #10
 80018da:	4013      	ands	r3, r2
 80018dc:	d100      	bne.n	80018e0 <HAL_GPIO_Init+0x174>
 80018de:	e098      	b.n	8001a12 <HAL_GPIO_Init+0x2a6>
      {
        temp = EXTI->EXTICR[position >> 2u];
 80018e0:	4a53      	ldr	r2, [pc, #332]	; (8001a30 <HAL_GPIO_Init+0x2c4>)
 80018e2:	697b      	ldr	r3, [r7, #20]
 80018e4:	089b      	lsrs	r3, r3, #2
 80018e6:	3318      	adds	r3, #24
 80018e8:	009b      	lsls	r3, r3, #2
 80018ea:	589b      	ldr	r3, [r3, r2]
 80018ec:	613b      	str	r3, [r7, #16]
        temp &= ~(0x0FuL << (8u * (position & 0x03u)));
 80018ee:	697b      	ldr	r3, [r7, #20]
 80018f0:	2203      	movs	r2, #3
 80018f2:	4013      	ands	r3, r2
 80018f4:	00db      	lsls	r3, r3, #3
 80018f6:	220f      	movs	r2, #15
 80018f8:	409a      	lsls	r2, r3
 80018fa:	0013      	movs	r3, r2
 80018fc:	43da      	mvns	r2, r3
 80018fe:	693b      	ldr	r3, [r7, #16]
 8001900:	4013      	ands	r3, r2
 8001902:	613b      	str	r3, [r7, #16]
        temp |= (GPIO_GET_INDEX(GPIOx) << (8u * (position & 0x03u)));
 8001904:	687a      	ldr	r2, [r7, #4]
 8001906:	23a0      	movs	r3, #160	; 0xa0
 8001908:	05db      	lsls	r3, r3, #23
 800190a:	429a      	cmp	r2, r3
 800190c:	d019      	beq.n	8001942 <HAL_GPIO_Init+0x1d6>
 800190e:	687b      	ldr	r3, [r7, #4]
 8001910:	4a48      	ldr	r2, [pc, #288]	; (8001a34 <HAL_GPIO_Init+0x2c8>)
 8001912:	4293      	cmp	r3, r2
 8001914:	d013      	beq.n	800193e <HAL_GPIO_Init+0x1d2>
 8001916:	687b      	ldr	r3, [r7, #4]
 8001918:	4a47      	ldr	r2, [pc, #284]	; (8001a38 <HAL_GPIO_Init+0x2cc>)
 800191a:	4293      	cmp	r3, r2
 800191c:	d00d      	beq.n	800193a <HAL_GPIO_Init+0x1ce>
 800191e:	687b      	ldr	r3, [r7, #4]
 8001920:	4a46      	ldr	r2, [pc, #280]	; (8001a3c <HAL_GPIO_Init+0x2d0>)
 8001922:	4293      	cmp	r3, r2
 8001924:	d007      	beq.n	8001936 <HAL_GPIO_Init+0x1ca>
 8001926:	687b      	ldr	r3, [r7, #4]
 8001928:	4a45      	ldr	r2, [pc, #276]	; (8001a40 <HAL_GPIO_Init+0x2d4>)
 800192a:	4293      	cmp	r3, r2
 800192c:	d101      	bne.n	8001932 <HAL_GPIO_Init+0x1c6>
 800192e:	2304      	movs	r3, #4
 8001930:	e008      	b.n	8001944 <HAL_GPIO_Init+0x1d8>
 8001932:	2305      	movs	r3, #5
 8001934:	e006      	b.n	8001944 <HAL_GPIO_Init+0x1d8>
 8001936:	2303      	movs	r3, #3
 8001938:	e004      	b.n	8001944 <HAL_GPIO_Init+0x1d8>
 800193a:	2302      	movs	r3, #2
 800193c:	e002      	b.n	8001944 <HAL_GPIO_Init+0x1d8>
 800193e:	2301      	movs	r3, #1
 8001940:	e000      	b.n	8001944 <HAL_GPIO_Init+0x1d8>
 8001942:	2300      	movs	r3, #0
 8001944:	697a      	ldr	r2, [r7, #20]
 8001946:	2103      	movs	r1, #3
 8001948:	400a      	ands	r2, r1
 800194a:	00d2      	lsls	r2, r2, #3
 800194c:	4093      	lsls	r3, r2
 800194e:	693a      	ldr	r2, [r7, #16]
 8001950:	4313      	orrs	r3, r2
 8001952:	613b      	str	r3, [r7, #16]
        EXTI->EXTICR[position >> 2u] = temp;
 8001954:	4936      	ldr	r1, [pc, #216]	; (8001a30 <HAL_GPIO_Init+0x2c4>)
 8001956:	697b      	ldr	r3, [r7, #20]
 8001958:	089b      	lsrs	r3, r3, #2
 800195a:	3318      	adds	r3, #24
 800195c:	009b      	lsls	r3, r3, #2
 800195e:	693a      	ldr	r2, [r7, #16]
 8001960:	505a      	str	r2, [r3, r1]

        /* Clear EXTI line configuration */
        temp = EXTI->IMR1;
 8001962:	4a33      	ldr	r2, [pc, #204]	; (8001a30 <HAL_GPIO_Init+0x2c4>)
 8001964:	2380      	movs	r3, #128	; 0x80
 8001966:	58d3      	ldr	r3, [r2, r3]
 8001968:	613b      	str	r3, [r7, #16]
        temp &= ~(iocurrent);
 800196a:	68fb      	ldr	r3, [r7, #12]
 800196c:	43da      	mvns	r2, r3
 800196e:	693b      	ldr	r3, [r7, #16]
 8001970:	4013      	ands	r3, r2
 8001972:	613b      	str	r3, [r7, #16]
        if ((GPIO_Init->Mode & EXTI_IT) != 0x00u)
 8001974:	683b      	ldr	r3, [r7, #0]
 8001976:	685a      	ldr	r2, [r3, #4]
 8001978:	2380      	movs	r3, #128	; 0x80
 800197a:	025b      	lsls	r3, r3, #9
 800197c:	4013      	ands	r3, r2
 800197e:	d003      	beq.n	8001988 <HAL_GPIO_Init+0x21c>
        {
          temp |= iocurrent;
 8001980:	693a      	ldr	r2, [r7, #16]
 8001982:	68fb      	ldr	r3, [r7, #12]
 8001984:	4313      	orrs	r3, r2
 8001986:	613b      	str	r3, [r7, #16]
        }
        EXTI->IMR1 = temp;
 8001988:	4929      	ldr	r1, [pc, #164]	; (8001a30 <HAL_GPIO_Init+0x2c4>)
 800198a:	2280      	movs	r2, #128	; 0x80
 800198c:	693b      	ldr	r3, [r7, #16]
 800198e:	508b      	str	r3, [r1, r2]

        temp = EXTI->EMR1;
 8001990:	4a27      	ldr	r2, [pc, #156]	; (8001a30 <HAL_GPIO_Init+0x2c4>)
 8001992:	2384      	movs	r3, #132	; 0x84
 8001994:	58d3      	ldr	r3, [r2, r3]
 8001996:	613b      	str	r3, [r7, #16]
        temp &= ~(iocurrent);
 8001998:	68fb      	ldr	r3, [r7, #12]
 800199a:	43da      	mvns	r2, r3
 800199c:	693b      	ldr	r3, [r7, #16]
 800199e:	4013      	ands	r3, r2
 80019a0:	613b      	str	r3, [r7, #16]
        if ((GPIO_Init->Mode & EXTI_EVT) != 0x00u)
 80019a2:	683b      	ldr	r3, [r7, #0]
 80019a4:	685a      	ldr	r2, [r3, #4]
 80019a6:	2380      	movs	r3, #128	; 0x80
 80019a8:	029b      	lsls	r3, r3, #10
 80019aa:	4013      	ands	r3, r2
 80019ac:	d003      	beq.n	80019b6 <HAL_GPIO_Init+0x24a>
        {
          temp |= iocurrent;
 80019ae:	693a      	ldr	r2, [r7, #16]
 80019b0:	68fb      	ldr	r3, [r7, #12]
 80019b2:	4313      	orrs	r3, r2
 80019b4:	613b      	str	r3, [r7, #16]
        }
        EXTI->EMR1 = temp;
 80019b6:	491e      	ldr	r1, [pc, #120]	; (8001a30 <HAL_GPIO_Init+0x2c4>)
 80019b8:	2284      	movs	r2, #132	; 0x84
 80019ba:	693b      	ldr	r3, [r7, #16]
 80019bc:	508b      	str	r3, [r1, r2]

        /* Clear Rising Falling edge configuration */
        temp = EXTI->RTSR1;
 80019be:	4b1c      	ldr	r3, [pc, #112]	; (8001a30 <HAL_GPIO_Init+0x2c4>)
 80019c0:	681b      	ldr	r3, [r3, #0]
 80019c2:	613b      	str	r3, [r7, #16]
        temp &= ~(iocurrent);
 80019c4:	68fb      	ldr	r3, [r7, #12]
 80019c6:	43da      	mvns	r2, r3
 80019c8:	693b      	ldr	r3, [r7, #16]
 80019ca:	4013      	ands	r3, r2
 80019cc:	613b      	str	r3, [r7, #16]
        if ((GPIO_Init->Mode & TRIGGER_RISING) != 0x00u)
 80019ce:	683b      	ldr	r3, [r7, #0]
 80019d0:	685a      	ldr	r2, [r3, #4]
 80019d2:	2380      	movs	r3, #128	; 0x80
 80019d4:	035b      	lsls	r3, r3, #13
 80019d6:	4013      	ands	r3, r2
 80019d8:	d003      	beq.n	80019e2 <HAL_GPIO_Init+0x276>
        {
          temp |= iocurrent;
 80019da:	693a      	ldr	r2, [r7, #16]
 80019dc:	68fb      	ldr	r3, [r7, #12]
 80019de:	4313      	orrs	r3, r2
 80019e0:	613b      	str	r3, [r7, #16]
        }
        EXTI->RTSR1 = temp;
 80019e2:	4b13      	ldr	r3, [pc, #76]	; (8001a30 <HAL_GPIO_Init+0x2c4>)
 80019e4:	693a      	ldr	r2, [r7, #16]
 80019e6:	601a      	str	r2, [r3, #0]

        temp = EXTI->FTSR1;
 80019e8:	4b11      	ldr	r3, [pc, #68]	; (8001a30 <HAL_GPIO_Init+0x2c4>)
 80019ea:	685b      	ldr	r3, [r3, #4]
 80019ec:	613b      	str	r3, [r7, #16]
        temp &= ~(iocurrent);
 80019ee:	68fb      	ldr	r3, [r7, #12]
 80019f0:	43da      	mvns	r2, r3
 80019f2:	693b      	ldr	r3, [r7, #16]
 80019f4:	4013      	ands	r3, r2
 80019f6:	613b      	str	r3, [r7, #16]
        if ((GPIO_Init->Mode & TRIGGER_FALLING) != 0x00u)
 80019f8:	683b      	ldr	r3, [r7, #0]
 80019fa:	685a      	ldr	r2, [r3, #4]
 80019fc:	2380      	movs	r3, #128	; 0x80
 80019fe:	039b      	lsls	r3, r3, #14
 8001a00:	4013      	ands	r3, r2
 8001a02:	d003      	beq.n	8001a0c <HAL_GPIO_Init+0x2a0>
        {
          temp |= iocurrent;
 8001a04:	693a      	ldr	r2, [r7, #16]
 8001a06:	68fb      	ldr	r3, [r7, #12]
 8001a08:	4313      	orrs	r3, r2
 8001a0a:	613b      	str	r3, [r7, #16]
        }
        EXTI->FTSR1 = temp;
 8001a0c:	4b08      	ldr	r3, [pc, #32]	; (8001a30 <HAL_GPIO_Init+0x2c4>)
 8001a0e:	693a      	ldr	r2, [r7, #16]
 8001a10:	605a      	str	r2, [r3, #4]
      }
    }

    position++;
 8001a12:	697b      	ldr	r3, [r7, #20]
 8001a14:	3301      	adds	r3, #1
 8001a16:	617b      	str	r3, [r7, #20]
  while (((GPIO_Init->Pin) >> position) != 0x00u)
 8001a18:	683b      	ldr	r3, [r7, #0]
 8001a1a:	681a      	ldr	r2, [r3, #0]
 8001a1c:	697b      	ldr	r3, [r7, #20]
 8001a1e:	40da      	lsrs	r2, r3
 8001a20:	1e13      	subs	r3, r2, #0
 8001a22:	d000      	beq.n	8001a26 <HAL_GPIO_Init+0x2ba>
 8001a24:	e6aa      	b.n	800177c <HAL_GPIO_Init+0x10>
  }
}
 8001a26:	46c0      	nop			; (mov r8, r8)
 8001a28:	46c0      	nop			; (mov r8, r8)
 8001a2a:	46bd      	mov	sp, r7
 8001a2c:	b006      	add	sp, #24
 8001a2e:	bd80      	pop	{r7, pc}
 8001a30:	40021800 	.word	0x40021800
 8001a34:	50000400 	.word	0x50000400
 8001a38:	50000800 	.word	0x50000800
 8001a3c:	50000c00 	.word	0x50000c00
 8001a40:	50001000 	.word	0x50001000

08001a44 <HAL_GPIO_WritePin>:
  *            @arg GPIO_PIN_RESET: to clear the port pin
  *            @arg GPIO_PIN_SET: to set the port pin
  * @retval None
  */
void HAL_GPIO_WritePin(GPIO_TypeDef *GPIOx, uint16_t GPIO_Pin, GPIO_PinState PinState)
{
 8001a44:	b580      	push	{r7, lr}
 8001a46:	b082      	sub	sp, #8
 8001a48:	af00      	add	r7, sp, #0
 8001a4a:	6078      	str	r0, [r7, #4]
 8001a4c:	0008      	movs	r0, r1
 8001a4e:	0011      	movs	r1, r2
 8001a50:	1cbb      	adds	r3, r7, #2
 8001a52:	1c02      	adds	r2, r0, #0
 8001a54:	801a      	strh	r2, [r3, #0]
 8001a56:	1c7b      	adds	r3, r7, #1
 8001a58:	1c0a      	adds	r2, r1, #0
 8001a5a:	701a      	strb	r2, [r3, #0]
  /* Check the parameters */
  assert_param(IS_GPIO_PIN(GPIO_Pin));
  assert_param(IS_GPIO_PIN_ACTION(PinState));

  if (PinState != GPIO_PIN_RESET)
 8001a5c:	1c7b      	adds	r3, r7, #1
 8001a5e:	781b      	ldrb	r3, [r3, #0]
 8001a60:	2b00      	cmp	r3, #0
 8001a62:	d004      	beq.n	8001a6e <HAL_GPIO_WritePin+0x2a>
  {
    GPIOx->BSRR = (uint32_t)GPIO_Pin;
 8001a64:	1cbb      	adds	r3, r7, #2
 8001a66:	881a      	ldrh	r2, [r3, #0]
 8001a68:	687b      	ldr	r3, [r7, #4]
 8001a6a:	619a      	str	r2, [r3, #24]
  }
  else
  {
    GPIOx->BRR = (uint32_t)GPIO_Pin;
  }
}
 8001a6c:	e003      	b.n	8001a76 <HAL_GPIO_WritePin+0x32>
    GPIOx->BRR = (uint32_t)GPIO_Pin;
 8001a6e:	1cbb      	adds	r3, r7, #2
 8001a70:	881a      	ldrh	r2, [r3, #0]
 8001a72:	687b      	ldr	r3, [r7, #4]
 8001a74:	629a      	str	r2, [r3, #40]	; 0x28
}
 8001a76:	46c0      	nop			; (mov r8, r8)
 8001a78:	46bd      	mov	sp, r7
 8001a7a:	b002      	add	sp, #8
 8001a7c:	bd80      	pop	{r7, pc}
	...

08001a80 <HAL_PWREx_ControlVoltageScaling>:
  *        cleared before returning the status. If the flag is not cleared within
  *        6 microseconds, HAL_TIMEOUT status is reported.
  * @retval HAL Status
  */
HAL_StatusTypeDef HAL_PWREx_ControlVoltageScaling(uint32_t VoltageScaling)
{
 8001a80:	b580      	push	{r7, lr}
 8001a82:	b084      	sub	sp, #16
 8001a84:	af00      	add	r7, sp, #0
 8001a86:	6078      	str	r0, [r7, #4]
  uint32_t wait_loop_index;

  assert_param(IS_PWR_VOLTAGE_SCALING_RANGE(VoltageScaling));

  /* Modify voltage scaling range */
  MODIFY_REG(PWR->CR1, PWR_CR1_VOS, VoltageScaling);
 8001a88:	4b19      	ldr	r3, [pc, #100]	; (8001af0 <HAL_PWREx_ControlVoltageScaling+0x70>)
 8001a8a:	681b      	ldr	r3, [r3, #0]
 8001a8c:	4a19      	ldr	r2, [pc, #100]	; (8001af4 <HAL_PWREx_ControlVoltageScaling+0x74>)
 8001a8e:	4013      	ands	r3, r2
 8001a90:	0019      	movs	r1, r3
 8001a92:	4b17      	ldr	r3, [pc, #92]	; (8001af0 <HAL_PWREx_ControlVoltageScaling+0x70>)
 8001a94:	687a      	ldr	r2, [r7, #4]
 8001a96:	430a      	orrs	r2, r1
 8001a98:	601a      	str	r2, [r3, #0]

  /* In case of Range 1 selected, we need to ensure that main regulator reaches new value */
  if (VoltageScaling == PWR_REGULATOR_VOLTAGE_SCALE1)
 8001a9a:	687a      	ldr	r2, [r7, #4]
 8001a9c:	2380      	movs	r3, #128	; 0x80
 8001a9e:	009b      	lsls	r3, r3, #2
 8001aa0:	429a      	cmp	r2, r3
 8001aa2:	d11f      	bne.n	8001ae4 <HAL_PWREx_ControlVoltageScaling+0x64>
  {
    /* Set timeout value */
    wait_loop_index = ((PWR_VOSF_SETTING_DELAY_6_US * SystemCoreClock) / 1000000U) + 1U;
 8001aa4:	4b14      	ldr	r3, [pc, #80]	; (8001af8 <HAL_PWREx_ControlVoltageScaling+0x78>)
 8001aa6:	681a      	ldr	r2, [r3, #0]
 8001aa8:	0013      	movs	r3, r2
 8001aaa:	005b      	lsls	r3, r3, #1
 8001aac:	189b      	adds	r3, r3, r2
 8001aae:	005b      	lsls	r3, r3, #1
 8001ab0:	4912      	ldr	r1, [pc, #72]	; (8001afc <HAL_PWREx_ControlVoltageScaling+0x7c>)
 8001ab2:	0018      	movs	r0, r3
 8001ab4:	f7fe fb26 	bl	8000104 <__udivsi3>
 8001ab8:	0003      	movs	r3, r0
 8001aba:	3301      	adds	r3, #1
 8001abc:	60fb      	str	r3, [r7, #12]

    /* Wait until VOSF is reset */
    while (HAL_IS_BIT_SET(PWR->SR2, PWR_SR2_VOSF))
 8001abe:	e008      	b.n	8001ad2 <HAL_PWREx_ControlVoltageScaling+0x52>
    {
      if (wait_loop_index != 0U)
 8001ac0:	68fb      	ldr	r3, [r7, #12]
 8001ac2:	2b00      	cmp	r3, #0
 8001ac4:	d003      	beq.n	8001ace <HAL_PWREx_ControlVoltageScaling+0x4e>
      {
        wait_loop_index--;
 8001ac6:	68fb      	ldr	r3, [r7, #12]
 8001ac8:	3b01      	subs	r3, #1
 8001aca:	60fb      	str	r3, [r7, #12]
 8001acc:	e001      	b.n	8001ad2 <HAL_PWREx_ControlVoltageScaling+0x52>
      }
      else
      {
        return HAL_TIMEOUT;
 8001ace:	2303      	movs	r3, #3
 8001ad0:	e009      	b.n	8001ae6 <HAL_PWREx_ControlVoltageScaling+0x66>
    while (HAL_IS_BIT_SET(PWR->SR2, PWR_SR2_VOSF))
 8001ad2:	4b07      	ldr	r3, [pc, #28]	; (8001af0 <HAL_PWREx_ControlVoltageScaling+0x70>)
 8001ad4:	695a      	ldr	r2, [r3, #20]
 8001ad6:	2380      	movs	r3, #128	; 0x80
 8001ad8:	00db      	lsls	r3, r3, #3
 8001ada:	401a      	ands	r2, r3
 8001adc:	2380      	movs	r3, #128	; 0x80
 8001ade:	00db      	lsls	r3, r3, #3
 8001ae0:	429a      	cmp	r2, r3
 8001ae2:	d0ed      	beq.n	8001ac0 <HAL_PWREx_ControlVoltageScaling+0x40>
      }
    }
  }

  return HAL_OK;
 8001ae4:	2300      	movs	r3, #0
}
 8001ae6:	0018      	movs	r0, r3
 8001ae8:	46bd      	mov	sp, r7
 8001aea:	b004      	add	sp, #16
 8001aec:	bd80      	pop	{r7, pc}
 8001aee:	46c0      	nop			; (mov r8, r8)
 8001af0:	40007000 	.word	0x40007000
 8001af4:	fffff9ff 	.word	0xfffff9ff
 8001af8:	20000000 	.word	0x20000000
 8001afc:	000f4240 	.word	0x000f4240

08001b00 <HAL_RCC_OscConfig>:
  *         supported by this function. User should request a transition to LSE Off
  *         first and then to LSE On or LSE Bypass.
  * @retval HAL status
  */
HAL_StatusTypeDef HAL_RCC_OscConfig(RCC_OscInitTypeDef  *RCC_OscInitStruct)
{
 8001b00:	b580      	push	{r7, lr}
 8001b02:	b088      	sub	sp, #32
 8001b04:	af00      	add	r7, sp, #0
 8001b06:	6078      	str	r0, [r7, #4]
  uint32_t tickstart;
  uint32_t temp_sysclksrc;
  uint32_t temp_pllckcfg;

  /* Check Null pointer */
  if (RCC_OscInitStruct == NULL)
 8001b08:	687b      	ldr	r3, [r7, #4]
 8001b0a:	2b00      	cmp	r3, #0
 8001b0c:	d102      	bne.n	8001b14 <HAL_RCC_OscConfig+0x14>
  {
    return HAL_ERROR;
 8001b0e:	2301      	movs	r3, #1
 8001b10:	f000 fb56 	bl	80021c0 <HAL_RCC_OscConfig+0x6c0>

  /* Check the parameters */
  assert_param(IS_RCC_OSCILLATORTYPE(RCC_OscInitStruct->OscillatorType));

  /*------------------------------- HSE Configuration ------------------------*/
  if (((RCC_OscInitStruct->OscillatorType) & RCC_OSCILLATORTYPE_HSE) == RCC_OSCILLATORTYPE_HSE)
 8001b14:	687b      	ldr	r3, [r7, #4]
 8001b16:	681b      	ldr	r3, [r3, #0]
 8001b18:	2201      	movs	r2, #1
 8001b1a:	4013      	ands	r3, r2
 8001b1c:	d100      	bne.n	8001b20 <HAL_RCC_OscConfig+0x20>
 8001b1e:	e07d      	b.n	8001c1c <HAL_RCC_OscConfig+0x11c>
  {
    /* Check the parameters */
    assert_param(IS_RCC_HSE(RCC_OscInitStruct->HSEState));

    temp_sysclksrc = __HAL_RCC_GET_SYSCLK_SOURCE();
 8001b20:	4bc3      	ldr	r3, [pc, #780]	; (8001e30 <HAL_RCC_OscConfig+0x330>)
 8001b22:	689b      	ldr	r3, [r3, #8]
 8001b24:	2238      	movs	r2, #56	; 0x38
 8001b26:	4013      	ands	r3, r2
 8001b28:	61bb      	str	r3, [r7, #24]
    temp_pllckcfg = __HAL_RCC_GET_PLL_OSCSOURCE();
 8001b2a:	4bc1      	ldr	r3, [pc, #772]	; (8001e30 <HAL_RCC_OscConfig+0x330>)
 8001b2c:	68db      	ldr	r3, [r3, #12]
 8001b2e:	2203      	movs	r2, #3
 8001b30:	4013      	ands	r3, r2
 8001b32:	617b      	str	r3, [r7, #20]

    /* When the HSE is used as system clock or clock source for PLL in these cases it is not allowed to be disabled */
    if (((temp_sysclksrc == RCC_SYSCLKSOURCE_STATUS_PLLCLK) && (temp_pllckcfg == RCC_PLLSOURCE_HSE))
 8001b34:	69bb      	ldr	r3, [r7, #24]
 8001b36:	2b10      	cmp	r3, #16
 8001b38:	d102      	bne.n	8001b40 <HAL_RCC_OscConfig+0x40>
 8001b3a:	697b      	ldr	r3, [r7, #20]
 8001b3c:	2b03      	cmp	r3, #3
 8001b3e:	d002      	beq.n	8001b46 <HAL_RCC_OscConfig+0x46>
        || (temp_sysclksrc == RCC_SYSCLKSOURCE_STATUS_HSE))
 8001b40:	69bb      	ldr	r3, [r7, #24]
 8001b42:	2b08      	cmp	r3, #8
 8001b44:	d10c      	bne.n	8001b60 <HAL_RCC_OscConfig+0x60>
    {
      if ((READ_BIT(RCC->CR, RCC_CR_HSERDY) != 0U) && (RCC_OscInitStruct->HSEState == RCC_HSE_OFF))
 8001b46:	4bba      	ldr	r3, [pc, #744]	; (8001e30 <HAL_RCC_OscConfig+0x330>)
 8001b48:	681a      	ldr	r2, [r3, #0]
 8001b4a:	2380      	movs	r3, #128	; 0x80
 8001b4c:	029b      	lsls	r3, r3, #10
 8001b4e:	4013      	ands	r3, r2
 8001b50:	d063      	beq.n	8001c1a <HAL_RCC_OscConfig+0x11a>
 8001b52:	687b      	ldr	r3, [r7, #4]
 8001b54:	685b      	ldr	r3, [r3, #4]
 8001b56:	2b00      	cmp	r3, #0
 8001b58:	d15f      	bne.n	8001c1a <HAL_RCC_OscConfig+0x11a>
      {
        return HAL_ERROR;
 8001b5a:	2301      	movs	r3, #1
 8001b5c:	f000 fb30 	bl	80021c0 <HAL_RCC_OscConfig+0x6c0>
      }
    }
    else
    {
      /* Set the new HSE configuration ---------------------------------------*/
      __HAL_RCC_HSE_CONFIG(RCC_OscInitStruct->HSEState);
 8001b60:	687b      	ldr	r3, [r7, #4]
 8001b62:	685a      	ldr	r2, [r3, #4]
 8001b64:	2380      	movs	r3, #128	; 0x80
 8001b66:	025b      	lsls	r3, r3, #9
 8001b68:	429a      	cmp	r2, r3
 8001b6a:	d107      	bne.n	8001b7c <HAL_RCC_OscConfig+0x7c>
 8001b6c:	4bb0      	ldr	r3, [pc, #704]	; (8001e30 <HAL_RCC_OscConfig+0x330>)
 8001b6e:	681a      	ldr	r2, [r3, #0]
 8001b70:	4baf      	ldr	r3, [pc, #700]	; (8001e30 <HAL_RCC_OscConfig+0x330>)
 8001b72:	2180      	movs	r1, #128	; 0x80
 8001b74:	0249      	lsls	r1, r1, #9
 8001b76:	430a      	orrs	r2, r1
 8001b78:	601a      	str	r2, [r3, #0]
 8001b7a:	e020      	b.n	8001bbe <HAL_RCC_OscConfig+0xbe>
 8001b7c:	687b      	ldr	r3, [r7, #4]
 8001b7e:	685a      	ldr	r2, [r3, #4]
 8001b80:	23a0      	movs	r3, #160	; 0xa0
 8001b82:	02db      	lsls	r3, r3, #11
 8001b84:	429a      	cmp	r2, r3
 8001b86:	d10e      	bne.n	8001ba6 <HAL_RCC_OscConfig+0xa6>
 8001b88:	4ba9      	ldr	r3, [pc, #676]	; (8001e30 <HAL_RCC_OscConfig+0x330>)
 8001b8a:	681a      	ldr	r2, [r3, #0]
 8001b8c:	4ba8      	ldr	r3, [pc, #672]	; (8001e30 <HAL_RCC_OscConfig+0x330>)
 8001b8e:	2180      	movs	r1, #128	; 0x80
 8001b90:	02c9      	lsls	r1, r1, #11
 8001b92:	430a      	orrs	r2, r1
 8001b94:	601a      	str	r2, [r3, #0]
 8001b96:	4ba6      	ldr	r3, [pc, #664]	; (8001e30 <HAL_RCC_OscConfig+0x330>)
 8001b98:	681a      	ldr	r2, [r3, #0]
 8001b9a:	4ba5      	ldr	r3, [pc, #660]	; (8001e30 <HAL_RCC_OscConfig+0x330>)
 8001b9c:	2180      	movs	r1, #128	; 0x80
 8001b9e:	0249      	lsls	r1, r1, #9
 8001ba0:	430a      	orrs	r2, r1
 8001ba2:	601a      	str	r2, [r3, #0]
 8001ba4:	e00b      	b.n	8001bbe <HAL_RCC_OscConfig+0xbe>
 8001ba6:	4ba2      	ldr	r3, [pc, #648]	; (8001e30 <HAL_RCC_OscConfig+0x330>)
 8001ba8:	681a      	ldr	r2, [r3, #0]
 8001baa:	4ba1      	ldr	r3, [pc, #644]	; (8001e30 <HAL_RCC_OscConfig+0x330>)
 8001bac:	49a1      	ldr	r1, [pc, #644]	; (8001e34 <HAL_RCC_OscConfig+0x334>)
 8001bae:	400a      	ands	r2, r1
 8001bb0:	601a      	str	r2, [r3, #0]
 8001bb2:	4b9f      	ldr	r3, [pc, #636]	; (8001e30 <HAL_RCC_OscConfig+0x330>)
 8001bb4:	681a      	ldr	r2, [r3, #0]
 8001bb6:	4b9e      	ldr	r3, [pc, #632]	; (8001e30 <HAL_RCC_OscConfig+0x330>)
 8001bb8:	499f      	ldr	r1, [pc, #636]	; (8001e38 <HAL_RCC_OscConfig+0x338>)
 8001bba:	400a      	ands	r2, r1
 8001bbc:	601a      	str	r2, [r3, #0]

      /* Check the HSE State */
      if (RCC_OscInitStruct->HSEState != RCC_HSE_OFF)
 8001bbe:	687b      	ldr	r3, [r7, #4]
 8001bc0:	685b      	ldr	r3, [r3, #4]
 8001bc2:	2b00      	cmp	r3, #0
 8001bc4:	d014      	beq.n	8001bf0 <HAL_RCC_OscConfig+0xf0>
      {
        /* Get Start Tick*/
        tickstart = HAL_GetTick();
 8001bc6:	f7fe fe91 	bl	80008ec <HAL_GetTick>
 8001bca:	0003      	movs	r3, r0
 8001bcc:	613b      	str	r3, [r7, #16]

        /* Wait till HSE is ready */
        while (READ_BIT(RCC->CR, RCC_CR_HSERDY) == 0U)
 8001bce:	e008      	b.n	8001be2 <HAL_RCC_OscConfig+0xe2>
        {
          if ((HAL_GetTick() - tickstart) > HSE_TIMEOUT_VALUE)
 8001bd0:	f7fe fe8c 	bl	80008ec <HAL_GetTick>
 8001bd4:	0002      	movs	r2, r0
 8001bd6:	693b      	ldr	r3, [r7, #16]
 8001bd8:	1ad3      	subs	r3, r2, r3
 8001bda:	2b64      	cmp	r3, #100	; 0x64
 8001bdc:	d901      	bls.n	8001be2 <HAL_RCC_OscConfig+0xe2>
          {
            return HAL_TIMEOUT;
 8001bde:	2303      	movs	r3, #3
 8001be0:	e2ee      	b.n	80021c0 <HAL_RCC_OscConfig+0x6c0>
        while (READ_BIT(RCC->CR, RCC_CR_HSERDY) == 0U)
 8001be2:	4b93      	ldr	r3, [pc, #588]	; (8001e30 <HAL_RCC_OscConfig+0x330>)
 8001be4:	681a      	ldr	r2, [r3, #0]
 8001be6:	2380      	movs	r3, #128	; 0x80
 8001be8:	029b      	lsls	r3, r3, #10
 8001bea:	4013      	ands	r3, r2
 8001bec:	d0f0      	beq.n	8001bd0 <HAL_RCC_OscConfig+0xd0>
 8001bee:	e015      	b.n	8001c1c <HAL_RCC_OscConfig+0x11c>
        }
      }
      else
      {
        /* Get Start Tick*/
        tickstart = HAL_GetTick();
 8001bf0:	f7fe fe7c 	bl	80008ec <HAL_GetTick>
 8001bf4:	0003      	movs	r3, r0
 8001bf6:	613b      	str	r3, [r7, #16]

        /* Wait till HSE is disabled */
        while (READ_BIT(RCC->CR, RCC_CR_HSERDY) != 0U)
 8001bf8:	e008      	b.n	8001c0c <HAL_RCC_OscConfig+0x10c>
        {
          if ((HAL_GetTick() - tickstart) > HSE_TIMEOUT_VALUE)
 8001bfa:	f7fe fe77 	bl	80008ec <HAL_GetTick>
 8001bfe:	0002      	movs	r2, r0
 8001c00:	693b      	ldr	r3, [r7, #16]
 8001c02:	1ad3      	subs	r3, r2, r3
 8001c04:	2b64      	cmp	r3, #100	; 0x64
 8001c06:	d901      	bls.n	8001c0c <HAL_RCC_OscConfig+0x10c>
          {
            return HAL_TIMEOUT;
 8001c08:	2303      	movs	r3, #3
 8001c0a:	e2d9      	b.n	80021c0 <HAL_RCC_OscConfig+0x6c0>
        while (READ_BIT(RCC->CR, RCC_CR_HSERDY) != 0U)
 8001c0c:	4b88      	ldr	r3, [pc, #544]	; (8001e30 <HAL_RCC_OscConfig+0x330>)
 8001c0e:	681a      	ldr	r2, [r3, #0]
 8001c10:	2380      	movs	r3, #128	; 0x80
 8001c12:	029b      	lsls	r3, r3, #10
 8001c14:	4013      	ands	r3, r2
 8001c16:	d1f0      	bne.n	8001bfa <HAL_RCC_OscConfig+0xfa>
 8001c18:	e000      	b.n	8001c1c <HAL_RCC_OscConfig+0x11c>
      if ((READ_BIT(RCC->CR, RCC_CR_HSERDY) != 0U) && (RCC_OscInitStruct->HSEState == RCC_HSE_OFF))
 8001c1a:	46c0      	nop			; (mov r8, r8)
        }
      }
    }
  }
  /*----------------------------- HSI Configuration --------------------------*/
  if (((RCC_OscInitStruct->OscillatorType) & RCC_OSCILLATORTYPE_HSI) == RCC_OSCILLATORTYPE_HSI)
 8001c1c:	687b      	ldr	r3, [r7, #4]
 8001c1e:	681b      	ldr	r3, [r3, #0]
 8001c20:	2202      	movs	r2, #2
 8001c22:	4013      	ands	r3, r2
 8001c24:	d100      	bne.n	8001c28 <HAL_RCC_OscConfig+0x128>
 8001c26:	e099      	b.n	8001d5c <HAL_RCC_OscConfig+0x25c>
    assert_param(IS_RCC_HSI(RCC_OscInitStruct->HSIState));
    assert_param(IS_RCC_HSI_CALIBRATION_VALUE(RCC_OscInitStruct->HSICalibrationValue));
    assert_param(IS_RCC_HSIDIV(RCC_OscInitStruct->HSIDiv));

    /* Check if HSI16 is used as system clock or as PLL source when PLL is selected as system clock */
    temp_sysclksrc = __HAL_RCC_GET_SYSCLK_SOURCE();
 8001c28:	4b81      	ldr	r3, [pc, #516]	; (8001e30 <HAL_RCC_OscConfig+0x330>)
 8001c2a:	689b      	ldr	r3, [r3, #8]
 8001c2c:	2238      	movs	r2, #56	; 0x38
 8001c2e:	4013      	ands	r3, r2
 8001c30:	61bb      	str	r3, [r7, #24]
    temp_pllckcfg = __HAL_RCC_GET_PLL_OSCSOURCE();
 8001c32:	4b7f      	ldr	r3, [pc, #508]	; (8001e30 <HAL_RCC_OscConfig+0x330>)
 8001c34:	68db      	ldr	r3, [r3, #12]
 8001c36:	2203      	movs	r2, #3
 8001c38:	4013      	ands	r3, r2
 8001c3a:	617b      	str	r3, [r7, #20]
    if (((temp_sysclksrc == RCC_SYSCLKSOURCE_STATUS_PLLCLK) && (temp_pllckcfg == RCC_PLLSOURCE_HSI))
 8001c3c:	69bb      	ldr	r3, [r7, #24]
 8001c3e:	2b10      	cmp	r3, #16
 8001c40:	d102      	bne.n	8001c48 <HAL_RCC_OscConfig+0x148>
 8001c42:	697b      	ldr	r3, [r7, #20]
 8001c44:	2b02      	cmp	r3, #2
 8001c46:	d002      	beq.n	8001c4e <HAL_RCC_OscConfig+0x14e>
        || (temp_sysclksrc == RCC_SYSCLKSOURCE_STATUS_HSI))
 8001c48:	69bb      	ldr	r3, [r7, #24]
 8001c4a:	2b00      	cmp	r3, #0
 8001c4c:	d135      	bne.n	8001cba <HAL_RCC_OscConfig+0x1ba>
    {
      /* When HSI is used as system clock or as PLL input clock it can not be disabled */
      if ((READ_BIT(RCC->CR, RCC_CR_HSIRDY) != 0U) && (RCC_OscInitStruct->HSIState == RCC_HSI_OFF))
 8001c4e:	4b78      	ldr	r3, [pc, #480]	; (8001e30 <HAL_RCC_OscConfig+0x330>)
 8001c50:	681a      	ldr	r2, [r3, #0]
 8001c52:	2380      	movs	r3, #128	; 0x80
 8001c54:	00db      	lsls	r3, r3, #3
 8001c56:	4013      	ands	r3, r2
 8001c58:	d005      	beq.n	8001c66 <HAL_RCC_OscConfig+0x166>
 8001c5a:	687b      	ldr	r3, [r7, #4]
 8001c5c:	68db      	ldr	r3, [r3, #12]
 8001c5e:	2b00      	cmp	r3, #0
 8001c60:	d101      	bne.n	8001c66 <HAL_RCC_OscConfig+0x166>
      {
        return HAL_ERROR;
 8001c62:	2301      	movs	r3, #1
 8001c64:	e2ac      	b.n	80021c0 <HAL_RCC_OscConfig+0x6c0>
      }
      /* Otherwise, just the calibration is allowed */
      else
      {
        /* Adjusts the Internal High Speed oscillator (HSI) calibration value.*/
        __HAL_RCC_HSI_CALIBRATIONVALUE_ADJUST(RCC_OscInitStruct->HSICalibrationValue);
 8001c66:	4b72      	ldr	r3, [pc, #456]	; (8001e30 <HAL_RCC_OscConfig+0x330>)
 8001c68:	685b      	ldr	r3, [r3, #4]
 8001c6a:	4a74      	ldr	r2, [pc, #464]	; (8001e3c <HAL_RCC_OscConfig+0x33c>)
 8001c6c:	4013      	ands	r3, r2
 8001c6e:	0019      	movs	r1, r3
 8001c70:	687b      	ldr	r3, [r7, #4]
 8001c72:	695b      	ldr	r3, [r3, #20]
 8001c74:	021a      	lsls	r2, r3, #8
 8001c76:	4b6e      	ldr	r3, [pc, #440]	; (8001e30 <HAL_RCC_OscConfig+0x330>)
 8001c78:	430a      	orrs	r2, r1
 8001c7a:	605a      	str	r2, [r3, #4]

        if (temp_sysclksrc == RCC_SYSCLKSOURCE_STATUS_HSI)
 8001c7c:	69bb      	ldr	r3, [r7, #24]
 8001c7e:	2b00      	cmp	r3, #0
 8001c80:	d112      	bne.n	8001ca8 <HAL_RCC_OscConfig+0x1a8>
        {
          /* Adjust the HSI16 division factor */
          __HAL_RCC_HSI_CONFIG(RCC_OscInitStruct->HSIDiv);
 8001c82:	4b6b      	ldr	r3, [pc, #428]	; (8001e30 <HAL_RCC_OscConfig+0x330>)
 8001c84:	681b      	ldr	r3, [r3, #0]
 8001c86:	4a6e      	ldr	r2, [pc, #440]	; (8001e40 <HAL_RCC_OscConfig+0x340>)
 8001c88:	4013      	ands	r3, r2
 8001c8a:	0019      	movs	r1, r3
 8001c8c:	687b      	ldr	r3, [r7, #4]
 8001c8e:	691a      	ldr	r2, [r3, #16]
 8001c90:	4b67      	ldr	r3, [pc, #412]	; (8001e30 <HAL_RCC_OscConfig+0x330>)
 8001c92:	430a      	orrs	r2, r1
 8001c94:	601a      	str	r2, [r3, #0]

          /* Update the SystemCoreClock global variable with HSISYS value  */
          SystemCoreClock = (HSI_VALUE / (1UL << ((READ_BIT(RCC->CR, RCC_CR_HSIDIV)) >> RCC_CR_HSIDIV_Pos)));
 8001c96:	4b66      	ldr	r3, [pc, #408]	; (8001e30 <HAL_RCC_OscConfig+0x330>)
 8001c98:	681b      	ldr	r3, [r3, #0]
 8001c9a:	0adb      	lsrs	r3, r3, #11
 8001c9c:	2207      	movs	r2, #7
 8001c9e:	4013      	ands	r3, r2
 8001ca0:	4a68      	ldr	r2, [pc, #416]	; (8001e44 <HAL_RCC_OscConfig+0x344>)
 8001ca2:	40da      	lsrs	r2, r3
 8001ca4:	4b68      	ldr	r3, [pc, #416]	; (8001e48 <HAL_RCC_OscConfig+0x348>)
 8001ca6:	601a      	str	r2, [r3, #0]
        }

        /* Adapt Systick interrupt period */
        if (HAL_InitTick(uwTickPrio) != HAL_OK)
 8001ca8:	4b68      	ldr	r3, [pc, #416]	; (8001e4c <HAL_RCC_OscConfig+0x34c>)
 8001caa:	681b      	ldr	r3, [r3, #0]
 8001cac:	0018      	movs	r0, r3
 8001cae:	f7fe fdc1 	bl	8000834 <HAL_InitTick>
 8001cb2:	1e03      	subs	r3, r0, #0
 8001cb4:	d051      	beq.n	8001d5a <HAL_RCC_OscConfig+0x25a>
        {
          return HAL_ERROR;
 8001cb6:	2301      	movs	r3, #1
 8001cb8:	e282      	b.n	80021c0 <HAL_RCC_OscConfig+0x6c0>
      }
    }
    else
    {
      /* Check the HSI State */
      if (RCC_OscInitStruct->HSIState != RCC_HSI_OFF)
 8001cba:	687b      	ldr	r3, [r7, #4]
 8001cbc:	68db      	ldr	r3, [r3, #12]
 8001cbe:	2b00      	cmp	r3, #0
 8001cc0:	d030      	beq.n	8001d24 <HAL_RCC_OscConfig+0x224>
      {
        /* Configure the HSI16 division factor */
        __HAL_RCC_HSI_CONFIG(RCC_OscInitStruct->HSIDiv);
 8001cc2:	4b5b      	ldr	r3, [pc, #364]	; (8001e30 <HAL_RCC_OscConfig+0x330>)
 8001cc4:	681b      	ldr	r3, [r3, #0]
 8001cc6:	4a5e      	ldr	r2, [pc, #376]	; (8001e40 <HAL_RCC_OscConfig+0x340>)
 8001cc8:	4013      	ands	r3, r2
 8001cca:	0019      	movs	r1, r3
 8001ccc:	687b      	ldr	r3, [r7, #4]
 8001cce:	691a      	ldr	r2, [r3, #16]
 8001cd0:	4b57      	ldr	r3, [pc, #348]	; (8001e30 <HAL_RCC_OscConfig+0x330>)
 8001cd2:	430a      	orrs	r2, r1
 8001cd4:	601a      	str	r2, [r3, #0]

        /* Enable the Internal High Speed oscillator (HSI16). */
        __HAL_RCC_HSI_ENABLE();
 8001cd6:	4b56      	ldr	r3, [pc, #344]	; (8001e30 <HAL_RCC_OscConfig+0x330>)
 8001cd8:	681a      	ldr	r2, [r3, #0]
 8001cda:	4b55      	ldr	r3, [pc, #340]	; (8001e30 <HAL_RCC_OscConfig+0x330>)
 8001cdc:	2180      	movs	r1, #128	; 0x80
 8001cde:	0049      	lsls	r1, r1, #1
 8001ce0:	430a      	orrs	r2, r1
 8001ce2:	601a      	str	r2, [r3, #0]

        /* Get Start Tick*/
        tickstart = HAL_GetTick();
 8001ce4:	f7fe fe02 	bl	80008ec <HAL_GetTick>
 8001ce8:	0003      	movs	r3, r0
 8001cea:	613b      	str	r3, [r7, #16]

        /* Wait till HSI is ready */
        while (READ_BIT(RCC->CR, RCC_CR_HSIRDY) == 0U)
 8001cec:	e008      	b.n	8001d00 <HAL_RCC_OscConfig+0x200>
        {
          if ((HAL_GetTick() - tickstart) > HSI_TIMEOUT_VALUE)
 8001cee:	f7fe fdfd 	bl	80008ec <HAL_GetTick>
 8001cf2:	0002      	movs	r2, r0
 8001cf4:	693b      	ldr	r3, [r7, #16]
 8001cf6:	1ad3      	subs	r3, r2, r3
 8001cf8:	2b02      	cmp	r3, #2
 8001cfa:	d901      	bls.n	8001d00 <HAL_RCC_OscConfig+0x200>
          {
            return HAL_TIMEOUT;
 8001cfc:	2303      	movs	r3, #3
 8001cfe:	e25f      	b.n	80021c0 <HAL_RCC_OscConfig+0x6c0>
        while (READ_BIT(RCC->CR, RCC_CR_HSIRDY) == 0U)
 8001d00:	4b4b      	ldr	r3, [pc, #300]	; (8001e30 <HAL_RCC_OscConfig+0x330>)
 8001d02:	681a      	ldr	r2, [r3, #0]
 8001d04:	2380      	movs	r3, #128	; 0x80
 8001d06:	00db      	lsls	r3, r3, #3
 8001d08:	4013      	ands	r3, r2
 8001d0a:	d0f0      	beq.n	8001cee <HAL_RCC_OscConfig+0x1ee>
          }
        }

        /* Adjusts the Internal High Speed oscillator (HSI) calibration value.*/
        __HAL_RCC_HSI_CALIBRATIONVALUE_ADJUST(RCC_OscInitStruct->HSICalibrationValue);
 8001d0c:	4b48      	ldr	r3, [pc, #288]	; (8001e30 <HAL_RCC_OscConfig+0x330>)
 8001d0e:	685b      	ldr	r3, [r3, #4]
 8001d10:	4a4a      	ldr	r2, [pc, #296]	; (8001e3c <HAL_RCC_OscConfig+0x33c>)
 8001d12:	4013      	ands	r3, r2
 8001d14:	0019      	movs	r1, r3
 8001d16:	687b      	ldr	r3, [r7, #4]
 8001d18:	695b      	ldr	r3, [r3, #20]
 8001d1a:	021a      	lsls	r2, r3, #8
 8001d1c:	4b44      	ldr	r3, [pc, #272]	; (8001e30 <HAL_RCC_OscConfig+0x330>)
 8001d1e:	430a      	orrs	r2, r1
 8001d20:	605a      	str	r2, [r3, #4]
 8001d22:	e01b      	b.n	8001d5c <HAL_RCC_OscConfig+0x25c>
      }
      else
      {
        /* Disable the Internal High Speed oscillator (HSI16). */
        __HAL_RCC_HSI_DISABLE();
 8001d24:	4b42      	ldr	r3, [pc, #264]	; (8001e30 <HAL_RCC_OscConfig+0x330>)
 8001d26:	681a      	ldr	r2, [r3, #0]
 8001d28:	4b41      	ldr	r3, [pc, #260]	; (8001e30 <HAL_RCC_OscConfig+0x330>)
 8001d2a:	4949      	ldr	r1, [pc, #292]	; (8001e50 <HAL_RCC_OscConfig+0x350>)
 8001d2c:	400a      	ands	r2, r1
 8001d2e:	601a      	str	r2, [r3, #0]

        /* Get Start Tick*/
        tickstart = HAL_GetTick();
 8001d30:	f7fe fddc 	bl	80008ec <HAL_GetTick>
 8001d34:	0003      	movs	r3, r0
 8001d36:	613b      	str	r3, [r7, #16]

        /* Wait till HSI is disabled */
        while (READ_BIT(RCC->CR, RCC_CR_HSIRDY) != 0U)
 8001d38:	e008      	b.n	8001d4c <HAL_RCC_OscConfig+0x24c>
        {
          if ((HAL_GetTick() - tickstart) > HSI_TIMEOUT_VALUE)
 8001d3a:	f7fe fdd7 	bl	80008ec <HAL_GetTick>
 8001d3e:	0002      	movs	r2, r0
 8001d40:	693b      	ldr	r3, [r7, #16]
 8001d42:	1ad3      	subs	r3, r2, r3
 8001d44:	2b02      	cmp	r3, #2
 8001d46:	d901      	bls.n	8001d4c <HAL_RCC_OscConfig+0x24c>
          {
            return HAL_TIMEOUT;
 8001d48:	2303      	movs	r3, #3
 8001d4a:	e239      	b.n	80021c0 <HAL_RCC_OscConfig+0x6c0>
        while (READ_BIT(RCC->CR, RCC_CR_HSIRDY) != 0U)
 8001d4c:	4b38      	ldr	r3, [pc, #224]	; (8001e30 <HAL_RCC_OscConfig+0x330>)
 8001d4e:	681a      	ldr	r2, [r3, #0]
 8001d50:	2380      	movs	r3, #128	; 0x80
 8001d52:	00db      	lsls	r3, r3, #3
 8001d54:	4013      	ands	r3, r2
 8001d56:	d1f0      	bne.n	8001d3a <HAL_RCC_OscConfig+0x23a>
 8001d58:	e000      	b.n	8001d5c <HAL_RCC_OscConfig+0x25c>
      if ((READ_BIT(RCC->CR, RCC_CR_HSIRDY) != 0U) && (RCC_OscInitStruct->HSIState == RCC_HSI_OFF))
 8001d5a:	46c0      	nop			; (mov r8, r8)
        }
      }
    }
  }
  /*------------------------------ LSI Configuration -------------------------*/
  if (((RCC_OscInitStruct->OscillatorType) & RCC_OSCILLATORTYPE_LSI) == RCC_OSCILLATORTYPE_LSI)
 8001d5c:	687b      	ldr	r3, [r7, #4]
 8001d5e:	681b      	ldr	r3, [r3, #0]
 8001d60:	2208      	movs	r2, #8
 8001d62:	4013      	ands	r3, r2
 8001d64:	d047      	beq.n	8001df6 <HAL_RCC_OscConfig+0x2f6>
  {
    /* Check the parameters */
    assert_param(IS_RCC_LSI(RCC_OscInitStruct->LSIState));

    /* Check if LSI is used as system clock */
    if (__HAL_RCC_GET_SYSCLK_SOURCE() == RCC_SYSCLKSOURCE_STATUS_LSI)
 8001d66:	4b32      	ldr	r3, [pc, #200]	; (8001e30 <HAL_RCC_OscConfig+0x330>)
 8001d68:	689b      	ldr	r3, [r3, #8]
 8001d6a:	2238      	movs	r2, #56	; 0x38
 8001d6c:	4013      	ands	r3, r2
 8001d6e:	2b18      	cmp	r3, #24
 8001d70:	d10a      	bne.n	8001d88 <HAL_RCC_OscConfig+0x288>
    {
      /* When LSI is used as system clock it will not be disabled */
      if ((((RCC->CSR) & RCC_CSR_LSIRDY) != 0U) && (RCC_OscInitStruct->LSIState == RCC_LSI_OFF))
 8001d72:	4b2f      	ldr	r3, [pc, #188]	; (8001e30 <HAL_RCC_OscConfig+0x330>)
 8001d74:	6e1b      	ldr	r3, [r3, #96]	; 0x60
 8001d76:	2202      	movs	r2, #2
 8001d78:	4013      	ands	r3, r2
 8001d7a:	d03c      	beq.n	8001df6 <HAL_RCC_OscConfig+0x2f6>
 8001d7c:	687b      	ldr	r3, [r7, #4]
 8001d7e:	699b      	ldr	r3, [r3, #24]
 8001d80:	2b00      	cmp	r3, #0
 8001d82:	d138      	bne.n	8001df6 <HAL_RCC_OscConfig+0x2f6>
      {
        return HAL_ERROR;
 8001d84:	2301      	movs	r3, #1
 8001d86:	e21b      	b.n	80021c0 <HAL_RCC_OscConfig+0x6c0>
      }
    }
    else
    {
      /* Check the LSI State */
      if (RCC_OscInitStruct->LSIState != RCC_LSI_OFF)
 8001d88:	687b      	ldr	r3, [r7, #4]
 8001d8a:	699b      	ldr	r3, [r3, #24]
 8001d8c:	2b00      	cmp	r3, #0
 8001d8e:	d019      	beq.n	8001dc4 <HAL_RCC_OscConfig+0x2c4>
      {
        /* Enable the Internal Low Speed oscillator (LSI). */
        __HAL_RCC_LSI_ENABLE();
 8001d90:	4b27      	ldr	r3, [pc, #156]	; (8001e30 <HAL_RCC_OscConfig+0x330>)
 8001d92:	6e1a      	ldr	r2, [r3, #96]	; 0x60
 8001d94:	4b26      	ldr	r3, [pc, #152]	; (8001e30 <HAL_RCC_OscConfig+0x330>)
 8001d96:	2101      	movs	r1, #1
 8001d98:	430a      	orrs	r2, r1
 8001d9a:	661a      	str	r2, [r3, #96]	; 0x60

        /* Get Start Tick*/
        tickstart = HAL_GetTick();
 8001d9c:	f7fe fda6 	bl	80008ec <HAL_GetTick>
 8001da0:	0003      	movs	r3, r0
 8001da2:	613b      	str	r3, [r7, #16]

        /* Wait till LSI is ready */
        while (READ_BIT(RCC->CSR, RCC_CSR_LSIRDY) == 0U)
 8001da4:	e008      	b.n	8001db8 <HAL_RCC_OscConfig+0x2b8>
        {
          if ((HAL_GetTick() - tickstart) > LSI_TIMEOUT_VALUE)
 8001da6:	f7fe fda1 	bl	80008ec <HAL_GetTick>
 8001daa:	0002      	movs	r2, r0
 8001dac:	693b      	ldr	r3, [r7, #16]
 8001dae:	1ad3      	subs	r3, r2, r3
 8001db0:	2b02      	cmp	r3, #2
 8001db2:	d901      	bls.n	8001db8 <HAL_RCC_OscConfig+0x2b8>
          {
            return HAL_TIMEOUT;
 8001db4:	2303      	movs	r3, #3
 8001db6:	e203      	b.n	80021c0 <HAL_RCC_OscConfig+0x6c0>
        while (READ_BIT(RCC->CSR, RCC_CSR_LSIRDY) == 0U)
 8001db8:	4b1d      	ldr	r3, [pc, #116]	; (8001e30 <HAL_RCC_OscConfig+0x330>)
 8001dba:	6e1b      	ldr	r3, [r3, #96]	; 0x60
 8001dbc:	2202      	movs	r2, #2
 8001dbe:	4013      	ands	r3, r2
 8001dc0:	d0f1      	beq.n	8001da6 <HAL_RCC_OscConfig+0x2a6>
 8001dc2:	e018      	b.n	8001df6 <HAL_RCC_OscConfig+0x2f6>
        }
      }
      else
      {
        /* Disable the Internal Low Speed oscillator (LSI). */
        __HAL_RCC_LSI_DISABLE();
 8001dc4:	4b1a      	ldr	r3, [pc, #104]	; (8001e30 <HAL_RCC_OscConfig+0x330>)
 8001dc6:	6e1a      	ldr	r2, [r3, #96]	; 0x60
 8001dc8:	4b19      	ldr	r3, [pc, #100]	; (8001e30 <HAL_RCC_OscConfig+0x330>)
 8001dca:	2101      	movs	r1, #1
 8001dcc:	438a      	bics	r2, r1
 8001dce:	661a      	str	r2, [r3, #96]	; 0x60

        /* Get Start Tick*/
        tickstart = HAL_GetTick();
 8001dd0:	f7fe fd8c 	bl	80008ec <HAL_GetTick>
 8001dd4:	0003      	movs	r3, r0
 8001dd6:	613b      	str	r3, [r7, #16]

        /* Wait till LSI is disabled */
        while (READ_BIT(RCC->CSR, RCC_CSR_LSIRDY) != 0U)
 8001dd8:	e008      	b.n	8001dec <HAL_RCC_OscConfig+0x2ec>
        {
          if ((HAL_GetTick() - tickstart) > LSI_TIMEOUT_VALUE)
 8001dda:	f7fe fd87 	bl	80008ec <HAL_GetTick>
 8001dde:	0002      	movs	r2, r0
 8001de0:	693b      	ldr	r3, [r7, #16]
 8001de2:	1ad3      	subs	r3, r2, r3
 8001de4:	2b02      	cmp	r3, #2
 8001de6:	d901      	bls.n	8001dec <HAL_RCC_OscConfig+0x2ec>
          {
            return HAL_TIMEOUT;
 8001de8:	2303      	movs	r3, #3
 8001dea:	e1e9      	b.n	80021c0 <HAL_RCC_OscConfig+0x6c0>
        while (READ_BIT(RCC->CSR, RCC_CSR_LSIRDY) != 0U)
 8001dec:	4b10      	ldr	r3, [pc, #64]	; (8001e30 <HAL_RCC_OscConfig+0x330>)
 8001dee:	6e1b      	ldr	r3, [r3, #96]	; 0x60
 8001df0:	2202      	movs	r2, #2
 8001df2:	4013      	ands	r3, r2
 8001df4:	d1f1      	bne.n	8001dda <HAL_RCC_OscConfig+0x2da>
        }
      }
    }
  }
  /*------------------------------ LSE Configuration -------------------------*/
  if (((RCC_OscInitStruct->OscillatorType) & RCC_OSCILLATORTYPE_LSE) == RCC_OSCILLATORTYPE_LSE)
 8001df6:	687b      	ldr	r3, [r7, #4]
 8001df8:	681b      	ldr	r3, [r3, #0]
 8001dfa:	2204      	movs	r2, #4
 8001dfc:	4013      	ands	r3, r2
 8001dfe:	d100      	bne.n	8001e02 <HAL_RCC_OscConfig+0x302>
 8001e00:	e0c6      	b.n	8001f90 <HAL_RCC_OscConfig+0x490>
  {
    FlagStatus       pwrclkchanged = RESET;
 8001e02:	231f      	movs	r3, #31
 8001e04:	18fb      	adds	r3, r7, r3
 8001e06:	2200      	movs	r2, #0
 8001e08:	701a      	strb	r2, [r3, #0]

    /* Check the parameters */
    assert_param(IS_RCC_LSE(RCC_OscInitStruct->LSEState));

    /* When the LSE is used as system clock, it is not allowed disable it */
    if (__HAL_RCC_GET_SYSCLK_SOURCE() == RCC_SYSCLKSOURCE_STATUS_LSE)
 8001e0a:	4b09      	ldr	r3, [pc, #36]	; (8001e30 <HAL_RCC_OscConfig+0x330>)
 8001e0c:	689b      	ldr	r3, [r3, #8]
 8001e0e:	2238      	movs	r2, #56	; 0x38
 8001e10:	4013      	ands	r3, r2
 8001e12:	2b20      	cmp	r3, #32
 8001e14:	d11e      	bne.n	8001e54 <HAL_RCC_OscConfig+0x354>
    {
      if ((((RCC->BDCR) & RCC_BDCR_LSERDY) != 0U) && (RCC_OscInitStruct->LSEState == RCC_LSE_OFF))
 8001e16:	4b06      	ldr	r3, [pc, #24]	; (8001e30 <HAL_RCC_OscConfig+0x330>)
 8001e18:	6ddb      	ldr	r3, [r3, #92]	; 0x5c
 8001e1a:	2202      	movs	r2, #2
 8001e1c:	4013      	ands	r3, r2
 8001e1e:	d100      	bne.n	8001e22 <HAL_RCC_OscConfig+0x322>
 8001e20:	e0b6      	b.n	8001f90 <HAL_RCC_OscConfig+0x490>
 8001e22:	687b      	ldr	r3, [r7, #4]
 8001e24:	689b      	ldr	r3, [r3, #8]
 8001e26:	2b00      	cmp	r3, #0
 8001e28:	d000      	beq.n	8001e2c <HAL_RCC_OscConfig+0x32c>
 8001e2a:	e0b1      	b.n	8001f90 <HAL_RCC_OscConfig+0x490>
      {
        return HAL_ERROR;
 8001e2c:	2301      	movs	r3, #1
 8001e2e:	e1c7      	b.n	80021c0 <HAL_RCC_OscConfig+0x6c0>
 8001e30:	40021000 	.word	0x40021000
 8001e34:	fffeffff 	.word	0xfffeffff
 8001e38:	fffbffff 	.word	0xfffbffff
 8001e3c:	ffff80ff 	.word	0xffff80ff
 8001e40:	ffffc7ff 	.word	0xffffc7ff
 8001e44:	00f42400 	.word	0x00f42400
 8001e48:	20000000 	.word	0x20000000
 8001e4c:	20000004 	.word	0x20000004
 8001e50:	fffffeff 	.word	0xfffffeff
    }
    else
    {
      /* Update LSE configuration in Backup Domain control register    */
      /* Requires to enable write access to Backup Domain of necessary */
      if (__HAL_RCC_PWR_IS_CLK_DISABLED() != 0U)
 8001e54:	4bb8      	ldr	r3, [pc, #736]	; (8002138 <HAL_RCC_OscConfig+0x638>)
 8001e56:	6bda      	ldr	r2, [r3, #60]	; 0x3c
 8001e58:	2380      	movs	r3, #128	; 0x80
 8001e5a:	055b      	lsls	r3, r3, #21
 8001e5c:	4013      	ands	r3, r2
 8001e5e:	d101      	bne.n	8001e64 <HAL_RCC_OscConfig+0x364>
 8001e60:	2301      	movs	r3, #1
 8001e62:	e000      	b.n	8001e66 <HAL_RCC_OscConfig+0x366>
 8001e64:	2300      	movs	r3, #0
 8001e66:	2b00      	cmp	r3, #0
 8001e68:	d011      	beq.n	8001e8e <HAL_RCC_OscConfig+0x38e>
      {
        __HAL_RCC_PWR_CLK_ENABLE();
 8001e6a:	4bb3      	ldr	r3, [pc, #716]	; (8002138 <HAL_RCC_OscConfig+0x638>)
 8001e6c:	6bda      	ldr	r2, [r3, #60]	; 0x3c
 8001e6e:	4bb2      	ldr	r3, [pc, #712]	; (8002138 <HAL_RCC_OscConfig+0x638>)
 8001e70:	2180      	movs	r1, #128	; 0x80
 8001e72:	0549      	lsls	r1, r1, #21
 8001e74:	430a      	orrs	r2, r1
 8001e76:	63da      	str	r2, [r3, #60]	; 0x3c
 8001e78:	4baf      	ldr	r3, [pc, #700]	; (8002138 <HAL_RCC_OscConfig+0x638>)
 8001e7a:	6bda      	ldr	r2, [r3, #60]	; 0x3c
 8001e7c:	2380      	movs	r3, #128	; 0x80
 8001e7e:	055b      	lsls	r3, r3, #21
 8001e80:	4013      	ands	r3, r2
 8001e82:	60fb      	str	r3, [r7, #12]
 8001e84:	68fb      	ldr	r3, [r7, #12]
        pwrclkchanged = SET;
 8001e86:	231f      	movs	r3, #31
 8001e88:	18fb      	adds	r3, r7, r3
 8001e8a:	2201      	movs	r2, #1
 8001e8c:	701a      	strb	r2, [r3, #0]
      }

      if (HAL_IS_BIT_CLR(PWR->CR1, PWR_CR1_DBP))
 8001e8e:	4bab      	ldr	r3, [pc, #684]	; (800213c <HAL_RCC_OscConfig+0x63c>)
 8001e90:	681a      	ldr	r2, [r3, #0]
 8001e92:	2380      	movs	r3, #128	; 0x80
 8001e94:	005b      	lsls	r3, r3, #1
 8001e96:	4013      	ands	r3, r2
 8001e98:	d11a      	bne.n	8001ed0 <HAL_RCC_OscConfig+0x3d0>
      {
        /* Enable write access to Backup domain */
        SET_BIT(PWR->CR1, PWR_CR1_DBP);
 8001e9a:	4ba8      	ldr	r3, [pc, #672]	; (800213c <HAL_RCC_OscConfig+0x63c>)
 8001e9c:	681a      	ldr	r2, [r3, #0]
 8001e9e:	4ba7      	ldr	r3, [pc, #668]	; (800213c <HAL_RCC_OscConfig+0x63c>)
 8001ea0:	2180      	movs	r1, #128	; 0x80
 8001ea2:	0049      	lsls	r1, r1, #1
 8001ea4:	430a      	orrs	r2, r1
 8001ea6:	601a      	str	r2, [r3, #0]

        /* Wait for Backup domain Write protection disable */
        tickstart = HAL_GetTick();
 8001ea8:	f7fe fd20 	bl	80008ec <HAL_GetTick>
 8001eac:	0003      	movs	r3, r0
 8001eae:	613b      	str	r3, [r7, #16]

        while (HAL_IS_BIT_CLR(PWR->CR1, PWR_CR1_DBP))
 8001eb0:	e008      	b.n	8001ec4 <HAL_RCC_OscConfig+0x3c4>
        {
          if ((HAL_GetTick() - tickstart) > RCC_DBP_TIMEOUT_VALUE)
 8001eb2:	f7fe fd1b 	bl	80008ec <HAL_GetTick>
 8001eb6:	0002      	movs	r2, r0
 8001eb8:	693b      	ldr	r3, [r7, #16]
 8001eba:	1ad3      	subs	r3, r2, r3
 8001ebc:	2b02      	cmp	r3, #2
 8001ebe:	d901      	bls.n	8001ec4 <HAL_RCC_OscConfig+0x3c4>
          {
            return HAL_TIMEOUT;
 8001ec0:	2303      	movs	r3, #3
 8001ec2:	e17d      	b.n	80021c0 <HAL_RCC_OscConfig+0x6c0>
        while (HAL_IS_BIT_CLR(PWR->CR1, PWR_CR1_DBP))
 8001ec4:	4b9d      	ldr	r3, [pc, #628]	; (800213c <HAL_RCC_OscConfig+0x63c>)
 8001ec6:	681a      	ldr	r2, [r3, #0]
 8001ec8:	2380      	movs	r3, #128	; 0x80
 8001eca:	005b      	lsls	r3, r3, #1
 8001ecc:	4013      	ands	r3, r2
 8001ece:	d0f0      	beq.n	8001eb2 <HAL_RCC_OscConfig+0x3b2>
          }
        }
      }

      /* Set the new LSE configuration -----------------------------------------*/
      __HAL_RCC_LSE_CONFIG(RCC_OscInitStruct->LSEState);
 8001ed0:	687b      	ldr	r3, [r7, #4]
 8001ed2:	689b      	ldr	r3, [r3, #8]
 8001ed4:	2b01      	cmp	r3, #1
 8001ed6:	d106      	bne.n	8001ee6 <HAL_RCC_OscConfig+0x3e6>
 8001ed8:	4b97      	ldr	r3, [pc, #604]	; (8002138 <HAL_RCC_OscConfig+0x638>)
 8001eda:	6dda      	ldr	r2, [r3, #92]	; 0x5c
 8001edc:	4b96      	ldr	r3, [pc, #600]	; (8002138 <HAL_RCC_OscConfig+0x638>)
 8001ede:	2101      	movs	r1, #1
 8001ee0:	430a      	orrs	r2, r1
 8001ee2:	65da      	str	r2, [r3, #92]	; 0x5c
 8001ee4:	e01c      	b.n	8001f20 <HAL_RCC_OscConfig+0x420>
 8001ee6:	687b      	ldr	r3, [r7, #4]
 8001ee8:	689b      	ldr	r3, [r3, #8]
 8001eea:	2b05      	cmp	r3, #5
 8001eec:	d10c      	bne.n	8001f08 <HAL_RCC_OscConfig+0x408>
 8001eee:	4b92      	ldr	r3, [pc, #584]	; (8002138 <HAL_RCC_OscConfig+0x638>)
 8001ef0:	6dda      	ldr	r2, [r3, #92]	; 0x5c
 8001ef2:	4b91      	ldr	r3, [pc, #580]	; (8002138 <HAL_RCC_OscConfig+0x638>)
 8001ef4:	2104      	movs	r1, #4
 8001ef6:	430a      	orrs	r2, r1
 8001ef8:	65da      	str	r2, [r3, #92]	; 0x5c
 8001efa:	4b8f      	ldr	r3, [pc, #572]	; (8002138 <HAL_RCC_OscConfig+0x638>)
 8001efc:	6dda      	ldr	r2, [r3, #92]	; 0x5c
 8001efe:	4b8e      	ldr	r3, [pc, #568]	; (8002138 <HAL_RCC_OscConfig+0x638>)
 8001f00:	2101      	movs	r1, #1
 8001f02:	430a      	orrs	r2, r1
 8001f04:	65da      	str	r2, [r3, #92]	; 0x5c
 8001f06:	e00b      	b.n	8001f20 <HAL_RCC_OscConfig+0x420>
 8001f08:	4b8b      	ldr	r3, [pc, #556]	; (8002138 <HAL_RCC_OscConfig+0x638>)
 8001f0a:	6dda      	ldr	r2, [r3, #92]	; 0x5c
 8001f0c:	4b8a      	ldr	r3, [pc, #552]	; (8002138 <HAL_RCC_OscConfig+0x638>)
 8001f0e:	2101      	movs	r1, #1
 8001f10:	438a      	bics	r2, r1
 8001f12:	65da      	str	r2, [r3, #92]	; 0x5c
 8001f14:	4b88      	ldr	r3, [pc, #544]	; (8002138 <HAL_RCC_OscConfig+0x638>)
 8001f16:	6dda      	ldr	r2, [r3, #92]	; 0x5c
 8001f18:	4b87      	ldr	r3, [pc, #540]	; (8002138 <HAL_RCC_OscConfig+0x638>)
 8001f1a:	2104      	movs	r1, #4
 8001f1c:	438a      	bics	r2, r1
 8001f1e:	65da      	str	r2, [r3, #92]	; 0x5c

      /* Check the LSE State */
      if (RCC_OscInitStruct->LSEState != RCC_LSE_OFF)
 8001f20:	687b      	ldr	r3, [r7, #4]
 8001f22:	689b      	ldr	r3, [r3, #8]
 8001f24:	2b00      	cmp	r3, #0
 8001f26:	d014      	beq.n	8001f52 <HAL_RCC_OscConfig+0x452>
      {
        /* Get Start Tick*/
        tickstart = HAL_GetTick();
 8001f28:	f7fe fce0 	bl	80008ec <HAL_GetTick>
 8001f2c:	0003      	movs	r3, r0
 8001f2e:	613b      	str	r3, [r7, #16]

        /* Wait till LSE is ready */
        while (READ_BIT(RCC->BDCR, RCC_BDCR_LSERDY) == 0U)
 8001f30:	e009      	b.n	8001f46 <HAL_RCC_OscConfig+0x446>
        {
          if ((HAL_GetTick() - tickstart) > RCC_LSE_TIMEOUT_VALUE)
 8001f32:	f7fe fcdb 	bl	80008ec <HAL_GetTick>
 8001f36:	0002      	movs	r2, r0
 8001f38:	693b      	ldr	r3, [r7, #16]
 8001f3a:	1ad3      	subs	r3, r2, r3
 8001f3c:	4a80      	ldr	r2, [pc, #512]	; (8002140 <HAL_RCC_OscConfig+0x640>)
 8001f3e:	4293      	cmp	r3, r2
 8001f40:	d901      	bls.n	8001f46 <HAL_RCC_OscConfig+0x446>
          {
            return HAL_TIMEOUT;
 8001f42:	2303      	movs	r3, #3
 8001f44:	e13c      	b.n	80021c0 <HAL_RCC_OscConfig+0x6c0>
        while (READ_BIT(RCC->BDCR, RCC_BDCR_LSERDY) == 0U)
 8001f46:	4b7c      	ldr	r3, [pc, #496]	; (8002138 <HAL_RCC_OscConfig+0x638>)
 8001f48:	6ddb      	ldr	r3, [r3, #92]	; 0x5c
 8001f4a:	2202      	movs	r2, #2
 8001f4c:	4013      	ands	r3, r2
 8001f4e:	d0f0      	beq.n	8001f32 <HAL_RCC_OscConfig+0x432>
 8001f50:	e013      	b.n	8001f7a <HAL_RCC_OscConfig+0x47a>
        }
      }
      else
      {
        /* Get Start Tick*/
        tickstart = HAL_GetTick();
 8001f52:	f7fe fccb 	bl	80008ec <HAL_GetTick>
 8001f56:	0003      	movs	r3, r0
 8001f58:	613b      	str	r3, [r7, #16]

        /* Wait till LSE is disabled */
        while (READ_BIT(RCC->BDCR, RCC_BDCR_LSERDY) != 0U)
 8001f5a:	e009      	b.n	8001f70 <HAL_RCC_OscConfig+0x470>
        {
          if ((HAL_GetTick() - tickstart) > RCC_LSE_TIMEOUT_VALUE)
 8001f5c:	f7fe fcc6 	bl	80008ec <HAL_GetTick>
 8001f60:	0002      	movs	r2, r0
 8001f62:	693b      	ldr	r3, [r7, #16]
 8001f64:	1ad3      	subs	r3, r2, r3
 8001f66:	4a76      	ldr	r2, [pc, #472]	; (8002140 <HAL_RCC_OscConfig+0x640>)
 8001f68:	4293      	cmp	r3, r2
 8001f6a:	d901      	bls.n	8001f70 <HAL_RCC_OscConfig+0x470>
          {
            return HAL_TIMEOUT;
 8001f6c:	2303      	movs	r3, #3
 8001f6e:	e127      	b.n	80021c0 <HAL_RCC_OscConfig+0x6c0>
        while (READ_BIT(RCC->BDCR, RCC_BDCR_LSERDY) != 0U)
 8001f70:	4b71      	ldr	r3, [pc, #452]	; (8002138 <HAL_RCC_OscConfig+0x638>)
 8001f72:	6ddb      	ldr	r3, [r3, #92]	; 0x5c
 8001f74:	2202      	movs	r2, #2
 8001f76:	4013      	ands	r3, r2
 8001f78:	d1f0      	bne.n	8001f5c <HAL_RCC_OscConfig+0x45c>
          }
        }
      }

      /* Restore clock configuration if changed */
      if (pwrclkchanged == SET)
 8001f7a:	231f      	movs	r3, #31
 8001f7c:	18fb      	adds	r3, r7, r3
 8001f7e:	781b      	ldrb	r3, [r3, #0]
 8001f80:	2b01      	cmp	r3, #1
 8001f82:	d105      	bne.n	8001f90 <HAL_RCC_OscConfig+0x490>
      {
        __HAL_RCC_PWR_CLK_DISABLE();
 8001f84:	4b6c      	ldr	r3, [pc, #432]	; (8002138 <HAL_RCC_OscConfig+0x638>)
 8001f86:	6bda      	ldr	r2, [r3, #60]	; 0x3c
 8001f88:	4b6b      	ldr	r3, [pc, #428]	; (8002138 <HAL_RCC_OscConfig+0x638>)
 8001f8a:	496e      	ldr	r1, [pc, #440]	; (8002144 <HAL_RCC_OscConfig+0x644>)
 8001f8c:	400a      	ands	r2, r1
 8001f8e:	63da      	str	r2, [r3, #60]	; 0x3c
      }
    }
  }
#if defined(RCC_HSI48_SUPPORT)
  /*------------------------------ HSI48 Configuration -----------------------*/
  if (((RCC_OscInitStruct->OscillatorType) & RCC_OSCILLATORTYPE_HSI48) == RCC_OSCILLATORTYPE_HSI48)
 8001f90:	687b      	ldr	r3, [r7, #4]
 8001f92:	681b      	ldr	r3, [r3, #0]
 8001f94:	2220      	movs	r2, #32
 8001f96:	4013      	ands	r3, r2
 8001f98:	d039      	beq.n	800200e <HAL_RCC_OscConfig+0x50e>
  {
    /* Check the parameters */
    assert_param(IS_RCC_HSI48(RCC_OscInitStruct->HSI48State));

    /* Check the LSI State */
    if (RCC_OscInitStruct->HSI48State != RCC_HSI48_OFF)
 8001f9a:	687b      	ldr	r3, [r7, #4]
 8001f9c:	69db      	ldr	r3, [r3, #28]
 8001f9e:	2b00      	cmp	r3, #0
 8001fa0:	d01b      	beq.n	8001fda <HAL_RCC_OscConfig+0x4da>
    {
      /* Enable the Internal Low Speed oscillator (HSI48). */
      __HAL_RCC_HSI48_ENABLE();
 8001fa2:	4b65      	ldr	r3, [pc, #404]	; (8002138 <HAL_RCC_OscConfig+0x638>)
 8001fa4:	681a      	ldr	r2, [r3, #0]
 8001fa6:	4b64      	ldr	r3, [pc, #400]	; (8002138 <HAL_RCC_OscConfig+0x638>)
 8001fa8:	2180      	movs	r1, #128	; 0x80
 8001faa:	03c9      	lsls	r1, r1, #15
 8001fac:	430a      	orrs	r2, r1
 8001fae:	601a      	str	r2, [r3, #0]

      /* Get Start Tick*/
      tickstart = HAL_GetTick();
 8001fb0:	f7fe fc9c 	bl	80008ec <HAL_GetTick>
 8001fb4:	0003      	movs	r3, r0
 8001fb6:	613b      	str	r3, [r7, #16]

      /* Wait till HSI48 is ready */
      while (READ_BIT(RCC->CR, RCC_CR_HSI48RDY) == 0U)
 8001fb8:	e008      	b.n	8001fcc <HAL_RCC_OscConfig+0x4cc>
      {
        if ((HAL_GetTick() - tickstart) > HSI48_TIMEOUT_VALUE)
 8001fba:	f7fe fc97 	bl	80008ec <HAL_GetTick>
 8001fbe:	0002      	movs	r2, r0
 8001fc0:	693b      	ldr	r3, [r7, #16]
 8001fc2:	1ad3      	subs	r3, r2, r3
 8001fc4:	2b02      	cmp	r3, #2
 8001fc6:	d901      	bls.n	8001fcc <HAL_RCC_OscConfig+0x4cc>
        {
          return HAL_TIMEOUT;
 8001fc8:	2303      	movs	r3, #3
 8001fca:	e0f9      	b.n	80021c0 <HAL_RCC_OscConfig+0x6c0>
      while (READ_BIT(RCC->CR, RCC_CR_HSI48RDY) == 0U)
 8001fcc:	4b5a      	ldr	r3, [pc, #360]	; (8002138 <HAL_RCC_OscConfig+0x638>)
 8001fce:	681a      	ldr	r2, [r3, #0]
 8001fd0:	2380      	movs	r3, #128	; 0x80
 8001fd2:	041b      	lsls	r3, r3, #16
 8001fd4:	4013      	ands	r3, r2
 8001fd6:	d0f0      	beq.n	8001fba <HAL_RCC_OscConfig+0x4ba>
 8001fd8:	e019      	b.n	800200e <HAL_RCC_OscConfig+0x50e>
      }
    }
    else
    {
      /* Disable the Internal Low Speed oscillator (HSI48). */
      __HAL_RCC_HSI48_DISABLE();
 8001fda:	4b57      	ldr	r3, [pc, #348]	; (8002138 <HAL_RCC_OscConfig+0x638>)
 8001fdc:	681a      	ldr	r2, [r3, #0]
 8001fde:	4b56      	ldr	r3, [pc, #344]	; (8002138 <HAL_RCC_OscConfig+0x638>)
 8001fe0:	4959      	ldr	r1, [pc, #356]	; (8002148 <HAL_RCC_OscConfig+0x648>)
 8001fe2:	400a      	ands	r2, r1
 8001fe4:	601a      	str	r2, [r3, #0]

      /* Get Start Tick*/
      tickstart = HAL_GetTick();
 8001fe6:	f7fe fc81 	bl	80008ec <HAL_GetTick>
 8001fea:	0003      	movs	r3, r0
 8001fec:	613b      	str	r3, [r7, #16]

      /* Wait till HSI48 is disabled */
      while (READ_BIT(RCC->CR, RCC_CR_HSI48RDY) != 0U)
 8001fee:	e008      	b.n	8002002 <HAL_RCC_OscConfig+0x502>
      {
        if ((HAL_GetTick() - tickstart) > HSI48_TIMEOUT_VALUE)
 8001ff0:	f7fe fc7c 	bl	80008ec <HAL_GetTick>
 8001ff4:	0002      	movs	r2, r0
 8001ff6:	693b      	ldr	r3, [r7, #16]
 8001ff8:	1ad3      	subs	r3, r2, r3
 8001ffa:	2b02      	cmp	r3, #2
 8001ffc:	d901      	bls.n	8002002 <HAL_RCC_OscConfig+0x502>
        {
          return HAL_TIMEOUT;
 8001ffe:	2303      	movs	r3, #3
 8002000:	e0de      	b.n	80021c0 <HAL_RCC_OscConfig+0x6c0>
      while (READ_BIT(RCC->CR, RCC_CR_HSI48RDY) != 0U)
 8002002:	4b4d      	ldr	r3, [pc, #308]	; (8002138 <HAL_RCC_OscConfig+0x638>)
 8002004:	681a      	ldr	r2, [r3, #0]
 8002006:	2380      	movs	r3, #128	; 0x80
 8002008:	041b      	lsls	r3, r3, #16
 800200a:	4013      	ands	r3, r2
 800200c:	d1f0      	bne.n	8001ff0 <HAL_RCC_OscConfig+0x4f0>
#endif /* RCC_HSI48_SUPPORT */
  /*-------------------------------- PLL Configuration -----------------------*/
  /* Check the parameters */
  assert_param(IS_RCC_PLL(RCC_OscInitStruct->PLL.PLLState));

  if (RCC_OscInitStruct->PLL.PLLState != RCC_PLL_NONE)
 800200e:	687b      	ldr	r3, [r7, #4]
 8002010:	6a1b      	ldr	r3, [r3, #32]
 8002012:	2b00      	cmp	r3, #0
 8002014:	d100      	bne.n	8002018 <HAL_RCC_OscConfig+0x518>
 8002016:	e0d2      	b.n	80021be <HAL_RCC_OscConfig+0x6be>
  {
    /* Check if the PLL is used as system clock or not */
    if (__HAL_RCC_GET_SYSCLK_SOURCE() != RCC_SYSCLKSOURCE_STATUS_PLLCLK)
 8002018:	4b47      	ldr	r3, [pc, #284]	; (8002138 <HAL_RCC_OscConfig+0x638>)
 800201a:	689b      	ldr	r3, [r3, #8]
 800201c:	2238      	movs	r2, #56	; 0x38
 800201e:	4013      	ands	r3, r2
 8002020:	2b10      	cmp	r3, #16
 8002022:	d100      	bne.n	8002026 <HAL_RCC_OscConfig+0x526>
 8002024:	e081      	b.n	800212a <HAL_RCC_OscConfig+0x62a>
    {
      if (RCC_OscInitStruct->PLL.PLLState == RCC_PLL_ON)
 8002026:	687b      	ldr	r3, [r7, #4]
 8002028:	6a1b      	ldr	r3, [r3, #32]
 800202a:	2b02      	cmp	r3, #2
 800202c:	d156      	bne.n	80020dc <HAL_RCC_OscConfig+0x5dc>
        assert_param(IS_RCC_PLLQ_VALUE(RCC_OscInitStruct->PLL.PLLQ));
#endif /* RCC_PLLQ_SUPPORT */
        assert_param(IS_RCC_PLLR_VALUE(RCC_OscInitStruct->PLL.PLLR));

        /* Disable the main PLL. */
        __HAL_RCC_PLL_DISABLE();
 800202e:	4b42      	ldr	r3, [pc, #264]	; (8002138 <HAL_RCC_OscConfig+0x638>)
 8002030:	681a      	ldr	r2, [r3, #0]
 8002032:	4b41      	ldr	r3, [pc, #260]	; (8002138 <HAL_RCC_OscConfig+0x638>)
 8002034:	4945      	ldr	r1, [pc, #276]	; (800214c <HAL_RCC_OscConfig+0x64c>)
 8002036:	400a      	ands	r2, r1
 8002038:	601a      	str	r2, [r3, #0]

        /* Get Start Tick*/
        tickstart = HAL_GetTick();
 800203a:	f7fe fc57 	bl	80008ec <HAL_GetTick>
 800203e:	0003      	movs	r3, r0
 8002040:	613b      	str	r3, [r7, #16]

        /* Wait till PLL is ready */
        while (READ_BIT(RCC->CR, RCC_CR_PLLRDY) != 0U)
 8002042:	e008      	b.n	8002056 <HAL_RCC_OscConfig+0x556>
        {
          if ((HAL_GetTick() - tickstart) > PLL_TIMEOUT_VALUE)
 8002044:	f7fe fc52 	bl	80008ec <HAL_GetTick>
 8002048:	0002      	movs	r2, r0
 800204a:	693b      	ldr	r3, [r7, #16]
 800204c:	1ad3      	subs	r3, r2, r3
 800204e:	2b02      	cmp	r3, #2
 8002050:	d901      	bls.n	8002056 <HAL_RCC_OscConfig+0x556>
          {
            return HAL_TIMEOUT;
 8002052:	2303      	movs	r3, #3
 8002054:	e0b4      	b.n	80021c0 <HAL_RCC_OscConfig+0x6c0>
        while (READ_BIT(RCC->CR, RCC_CR_PLLRDY) != 0U)
 8002056:	4b38      	ldr	r3, [pc, #224]	; (8002138 <HAL_RCC_OscConfig+0x638>)
 8002058:	681a      	ldr	r2, [r3, #0]
 800205a:	2380      	movs	r3, #128	; 0x80
 800205c:	049b      	lsls	r3, r3, #18
 800205e:	4013      	ands	r3, r2
 8002060:	d1f0      	bne.n	8002044 <HAL_RCC_OscConfig+0x544>
          }
        }

        /* Configure the main PLL clock source, multiplication and division factors. */
        __HAL_RCC_PLL_CONFIG(RCC_OscInitStruct->PLL.PLLSource,
 8002062:	4b35      	ldr	r3, [pc, #212]	; (8002138 <HAL_RCC_OscConfig+0x638>)
 8002064:	68db      	ldr	r3, [r3, #12]
 8002066:	4a3a      	ldr	r2, [pc, #232]	; (8002150 <HAL_RCC_OscConfig+0x650>)
 8002068:	4013      	ands	r3, r2
 800206a:	0019      	movs	r1, r3
 800206c:	687b      	ldr	r3, [r7, #4]
 800206e:	6a5a      	ldr	r2, [r3, #36]	; 0x24
 8002070:	687b      	ldr	r3, [r7, #4]
 8002072:	6a9b      	ldr	r3, [r3, #40]	; 0x28
 8002074:	431a      	orrs	r2, r3
 8002076:	687b      	ldr	r3, [r7, #4]
 8002078:	6adb      	ldr	r3, [r3, #44]	; 0x2c
 800207a:	021b      	lsls	r3, r3, #8
 800207c:	431a      	orrs	r2, r3
 800207e:	687b      	ldr	r3, [r7, #4]
 8002080:	6b1b      	ldr	r3, [r3, #48]	; 0x30
 8002082:	431a      	orrs	r2, r3
 8002084:	687b      	ldr	r3, [r7, #4]
 8002086:	6b5b      	ldr	r3, [r3, #52]	; 0x34
 8002088:	431a      	orrs	r2, r3
 800208a:	687b      	ldr	r3, [r7, #4]
 800208c:	6b9b      	ldr	r3, [r3, #56]	; 0x38
 800208e:	431a      	orrs	r2, r3
 8002090:	4b29      	ldr	r3, [pc, #164]	; (8002138 <HAL_RCC_OscConfig+0x638>)
 8002092:	430a      	orrs	r2, r1
 8002094:	60da      	str	r2, [r3, #12]
                             RCC_OscInitStruct->PLL.PLLQ,
#endif /* RCC_PLLQ_SUPPORT */
                             RCC_OscInitStruct->PLL.PLLR);

        /* Enable the main PLL. */
        __HAL_RCC_PLL_ENABLE();
 8002096:	4b28      	ldr	r3, [pc, #160]	; (8002138 <HAL_RCC_OscConfig+0x638>)
 8002098:	681a      	ldr	r2, [r3, #0]
 800209a:	4b27      	ldr	r3, [pc, #156]	; (8002138 <HAL_RCC_OscConfig+0x638>)
 800209c:	2180      	movs	r1, #128	; 0x80
 800209e:	0449      	lsls	r1, r1, #17
 80020a0:	430a      	orrs	r2, r1
 80020a2:	601a      	str	r2, [r3, #0]

        /* Enable PLLR Clock output. */
        __HAL_RCC_PLLCLKOUT_ENABLE(RCC_PLLRCLK);
 80020a4:	4b24      	ldr	r3, [pc, #144]	; (8002138 <HAL_RCC_OscConfig+0x638>)
 80020a6:	68da      	ldr	r2, [r3, #12]
 80020a8:	4b23      	ldr	r3, [pc, #140]	; (8002138 <HAL_RCC_OscConfig+0x638>)
 80020aa:	2180      	movs	r1, #128	; 0x80
 80020ac:	0549      	lsls	r1, r1, #21
 80020ae:	430a      	orrs	r2, r1
 80020b0:	60da      	str	r2, [r3, #12]

        /* Get Start Tick*/
        tickstart = HAL_GetTick();
 80020b2:	f7fe fc1b 	bl	80008ec <HAL_GetTick>
 80020b6:	0003      	movs	r3, r0
 80020b8:	613b      	str	r3, [r7, #16]

        /* Wait till PLL is ready */
        while (READ_BIT(RCC->CR, RCC_CR_PLLRDY) == 0U)
 80020ba:	e008      	b.n	80020ce <HAL_RCC_OscConfig+0x5ce>
        {
          if ((HAL_GetTick() - tickstart) > PLL_TIMEOUT_VALUE)
 80020bc:	f7fe fc16 	bl	80008ec <HAL_GetTick>
 80020c0:	0002      	movs	r2, r0
 80020c2:	693b      	ldr	r3, [r7, #16]
 80020c4:	1ad3      	subs	r3, r2, r3
 80020c6:	2b02      	cmp	r3, #2
 80020c8:	d901      	bls.n	80020ce <HAL_RCC_OscConfig+0x5ce>
          {
            return HAL_TIMEOUT;
 80020ca:	2303      	movs	r3, #3
 80020cc:	e078      	b.n	80021c0 <HAL_RCC_OscConfig+0x6c0>
        while (READ_BIT(RCC->CR, RCC_CR_PLLRDY) == 0U)
 80020ce:	4b1a      	ldr	r3, [pc, #104]	; (8002138 <HAL_RCC_OscConfig+0x638>)
 80020d0:	681a      	ldr	r2, [r3, #0]
 80020d2:	2380      	movs	r3, #128	; 0x80
 80020d4:	049b      	lsls	r3, r3, #18
 80020d6:	4013      	ands	r3, r2
 80020d8:	d0f0      	beq.n	80020bc <HAL_RCC_OscConfig+0x5bc>
 80020da:	e070      	b.n	80021be <HAL_RCC_OscConfig+0x6be>
        }
      }
      else
      {
        /* Disable the main PLL. */
        __HAL_RCC_PLL_DISABLE();
 80020dc:	4b16      	ldr	r3, [pc, #88]	; (8002138 <HAL_RCC_OscConfig+0x638>)
 80020de:	681a      	ldr	r2, [r3, #0]
 80020e0:	4b15      	ldr	r3, [pc, #84]	; (8002138 <HAL_RCC_OscConfig+0x638>)
 80020e2:	491a      	ldr	r1, [pc, #104]	; (800214c <HAL_RCC_OscConfig+0x64c>)
 80020e4:	400a      	ands	r2, r1
 80020e6:	601a      	str	r2, [r3, #0]

        /* Disable all PLL outputs to save power */
        MODIFY_REG(RCC->PLLCFGR, RCC_PLLCFGR_PLLSRC, PLLSOURCE_NONE);
 80020e8:	4b13      	ldr	r3, [pc, #76]	; (8002138 <HAL_RCC_OscConfig+0x638>)
 80020ea:	68da      	ldr	r2, [r3, #12]
 80020ec:	4b12      	ldr	r3, [pc, #72]	; (8002138 <HAL_RCC_OscConfig+0x638>)
 80020ee:	2103      	movs	r1, #3
 80020f0:	438a      	bics	r2, r1
 80020f2:	60da      	str	r2, [r3, #12]

#if defined(RCC_PLLQ_SUPPORT)
        __HAL_RCC_PLLCLKOUT_DISABLE(RCC_PLLCFGR_PLLPEN | RCC_PLLCFGR_PLLQEN | RCC_PLLCFGR_PLLREN);
 80020f4:	4b10      	ldr	r3, [pc, #64]	; (8002138 <HAL_RCC_OscConfig+0x638>)
 80020f6:	68da      	ldr	r2, [r3, #12]
 80020f8:	4b0f      	ldr	r3, [pc, #60]	; (8002138 <HAL_RCC_OscConfig+0x638>)
 80020fa:	4916      	ldr	r1, [pc, #88]	; (8002154 <HAL_RCC_OscConfig+0x654>)
 80020fc:	400a      	ands	r2, r1
 80020fe:	60da      	str	r2, [r3, #12]
#else
        __HAL_RCC_PLLCLKOUT_DISABLE(RCC_PLLCFGR_PLLPEN | RCC_PLLCFGR_PLLREN);
#endif /* RCC_PLLQ_SUPPORT */

        /* Get Start Tick*/
        tickstart = HAL_GetTick();
 8002100:	f7fe fbf4 	bl	80008ec <HAL_GetTick>
 8002104:	0003      	movs	r3, r0
 8002106:	613b      	str	r3, [r7, #16]

        /* Wait till PLL is disabled */
        while (READ_BIT(RCC->CR, RCC_CR_PLLRDY) != 0U)
 8002108:	e008      	b.n	800211c <HAL_RCC_OscConfig+0x61c>
        {
          if ((HAL_GetTick() - tickstart) > PLL_TIMEOUT_VALUE)
 800210a:	f7fe fbef 	bl	80008ec <HAL_GetTick>
 800210e:	0002      	movs	r2, r0
 8002110:	693b      	ldr	r3, [r7, #16]
 8002112:	1ad3      	subs	r3, r2, r3
 8002114:	2b02      	cmp	r3, #2
 8002116:	d901      	bls.n	800211c <HAL_RCC_OscConfig+0x61c>
          {
            return HAL_TIMEOUT;
 8002118:	2303      	movs	r3, #3
 800211a:	e051      	b.n	80021c0 <HAL_RCC_OscConfig+0x6c0>
        while (READ_BIT(RCC->CR, RCC_CR_PLLRDY) != 0U)
 800211c:	4b06      	ldr	r3, [pc, #24]	; (8002138 <HAL_RCC_OscConfig+0x638>)
 800211e:	681a      	ldr	r2, [r3, #0]
 8002120:	2380      	movs	r3, #128	; 0x80
 8002122:	049b      	lsls	r3, r3, #18
 8002124:	4013      	ands	r3, r2
 8002126:	d1f0      	bne.n	800210a <HAL_RCC_OscConfig+0x60a>
 8002128:	e049      	b.n	80021be <HAL_RCC_OscConfig+0x6be>
      }
    }
    else
    {
      /* Check if there is a request to disable the PLL used as System clock source */
      if ((RCC_OscInitStruct->PLL.PLLState) == RCC_PLL_OFF)
 800212a:	687b      	ldr	r3, [r7, #4]
 800212c:	6a1b      	ldr	r3, [r3, #32]
 800212e:	2b01      	cmp	r3, #1
 8002130:	d112      	bne.n	8002158 <HAL_RCC_OscConfig+0x658>
      {
        return HAL_ERROR;
 8002132:	2301      	movs	r3, #1
 8002134:	e044      	b.n	80021c0 <HAL_RCC_OscConfig+0x6c0>
 8002136:	46c0      	nop			; (mov r8, r8)
 8002138:	40021000 	.word	0x40021000
 800213c:	40007000 	.word	0x40007000
 8002140:	00001388 	.word	0x00001388
 8002144:	efffffff 	.word	0xefffffff
 8002148:	ffbfffff 	.word	0xffbfffff
 800214c:	feffffff 	.word	0xfeffffff
 8002150:	11c1808c 	.word	0x11c1808c
 8002154:	eefeffff 	.word	0xeefeffff
      }
      else
      {
        /* Do not return HAL_ERROR if request repeats the current configuration */
        temp_pllckcfg = RCC->PLLCFGR;
 8002158:	4b1b      	ldr	r3, [pc, #108]	; (80021c8 <HAL_RCC_OscConfig+0x6c8>)
 800215a:	68db      	ldr	r3, [r3, #12]
 800215c:	617b      	str	r3, [r7, #20]
        if ((READ_BIT(temp_pllckcfg, RCC_PLLCFGR_PLLSRC) != RCC_OscInitStruct->PLL.PLLSource) ||
 800215e:	697b      	ldr	r3, [r7, #20]
 8002160:	2203      	movs	r2, #3
 8002162:	401a      	ands	r2, r3
 8002164:	687b      	ldr	r3, [r7, #4]
 8002166:	6a5b      	ldr	r3, [r3, #36]	; 0x24
 8002168:	429a      	cmp	r2, r3
 800216a:	d126      	bne.n	80021ba <HAL_RCC_OscConfig+0x6ba>
            (READ_BIT(temp_pllckcfg, RCC_PLLCFGR_PLLM) != RCC_OscInitStruct->PLL.PLLM) ||
 800216c:	697b      	ldr	r3, [r7, #20]
 800216e:	2270      	movs	r2, #112	; 0x70
 8002170:	401a      	ands	r2, r3
 8002172:	687b      	ldr	r3, [r7, #4]
 8002174:	6a9b      	ldr	r3, [r3, #40]	; 0x28
        if ((READ_BIT(temp_pllckcfg, RCC_PLLCFGR_PLLSRC) != RCC_OscInitStruct->PLL.PLLSource) ||
 8002176:	429a      	cmp	r2, r3
 8002178:	d11f      	bne.n	80021ba <HAL_RCC_OscConfig+0x6ba>
            (READ_BIT(temp_pllckcfg, RCC_PLLCFGR_PLLN) != (RCC_OscInitStruct->PLL.PLLN << RCC_PLLCFGR_PLLN_Pos)) ||
 800217a:	697a      	ldr	r2, [r7, #20]
 800217c:	23fe      	movs	r3, #254	; 0xfe
 800217e:	01db      	lsls	r3, r3, #7
 8002180:	401a      	ands	r2, r3
 8002182:	687b      	ldr	r3, [r7, #4]
 8002184:	6adb      	ldr	r3, [r3, #44]	; 0x2c
 8002186:	021b      	lsls	r3, r3, #8
            (READ_BIT(temp_pllckcfg, RCC_PLLCFGR_PLLM) != RCC_OscInitStruct->PLL.PLLM) ||
 8002188:	429a      	cmp	r2, r3
 800218a:	d116      	bne.n	80021ba <HAL_RCC_OscConfig+0x6ba>
            (READ_BIT(temp_pllckcfg, RCC_PLLCFGR_PLLP) != RCC_OscInitStruct->PLL.PLLP) ||
 800218c:	697a      	ldr	r2, [r7, #20]
 800218e:	23f8      	movs	r3, #248	; 0xf8
 8002190:	039b      	lsls	r3, r3, #14
 8002192:	401a      	ands	r2, r3
 8002194:	687b      	ldr	r3, [r7, #4]
 8002196:	6b1b      	ldr	r3, [r3, #48]	; 0x30
            (READ_BIT(temp_pllckcfg, RCC_PLLCFGR_PLLN) != (RCC_OscInitStruct->PLL.PLLN << RCC_PLLCFGR_PLLN_Pos)) ||
 8002198:	429a      	cmp	r2, r3
 800219a:	d10e      	bne.n	80021ba <HAL_RCC_OscConfig+0x6ba>
#if defined (RCC_PLLQ_SUPPORT)
            (READ_BIT(temp_pllckcfg, RCC_PLLCFGR_PLLQ) != RCC_OscInitStruct->PLL.PLLQ) ||
 800219c:	697a      	ldr	r2, [r7, #20]
 800219e:	23e0      	movs	r3, #224	; 0xe0
 80021a0:	051b      	lsls	r3, r3, #20
 80021a2:	401a      	ands	r2, r3
 80021a4:	687b      	ldr	r3, [r7, #4]
 80021a6:	6b5b      	ldr	r3, [r3, #52]	; 0x34
            (READ_BIT(temp_pllckcfg, RCC_PLLCFGR_PLLP) != RCC_OscInitStruct->PLL.PLLP) ||
 80021a8:	429a      	cmp	r2, r3
 80021aa:	d106      	bne.n	80021ba <HAL_RCC_OscConfig+0x6ba>
#endif /* RCC_PLLQ_SUPPORT */
            (READ_BIT(temp_pllckcfg, RCC_PLLCFGR_PLLR) != RCC_OscInitStruct->PLL.PLLR))
 80021ac:	697b      	ldr	r3, [r7, #20]
 80021ae:	0f5b      	lsrs	r3, r3, #29
 80021b0:	075a      	lsls	r2, r3, #29
 80021b2:	687b      	ldr	r3, [r7, #4]
 80021b4:	6b9b      	ldr	r3, [r3, #56]	; 0x38
            (READ_BIT(temp_pllckcfg, RCC_PLLCFGR_PLLQ) != RCC_OscInitStruct->PLL.PLLQ) ||
 80021b6:	429a      	cmp	r2, r3
 80021b8:	d001      	beq.n	80021be <HAL_RCC_OscConfig+0x6be>
        {
          return HAL_ERROR;
 80021ba:	2301      	movs	r3, #1
 80021bc:	e000      	b.n	80021c0 <HAL_RCC_OscConfig+0x6c0>
        }
      }
    }
  }
  return HAL_OK;
 80021be:	2300      	movs	r3, #0
}
 80021c0:	0018      	movs	r0, r3
 80021c2:	46bd      	mov	sp, r7
 80021c4:	b008      	add	sp, #32
 80021c6:	bd80      	pop	{r7, pc}
 80021c8:	40021000 	.word	0x40021000

080021cc <HAL_RCC_ClockConfig>:
  *         HPRE[3:0] bits to ensure that HCLK not exceed the maximum allowed frequency
  *         (for more details refer to section above "Initialization/de-initialization functions")
  * @retval None
  */
HAL_StatusTypeDef HAL_RCC_ClockConfig(RCC_ClkInitTypeDef  *RCC_ClkInitStruct, uint32_t FLatency)
{
 80021cc:	b580      	push	{r7, lr}
 80021ce:	b084      	sub	sp, #16
 80021d0:	af00      	add	r7, sp, #0
 80021d2:	6078      	str	r0, [r7, #4]
 80021d4:	6039      	str	r1, [r7, #0]
  uint32_t tickstart;

  /* Check Null pointer */
  if (RCC_ClkInitStruct == NULL)
 80021d6:	687b      	ldr	r3, [r7, #4]
 80021d8:	2b00      	cmp	r3, #0
 80021da:	d101      	bne.n	80021e0 <HAL_RCC_ClockConfig+0x14>
  {
    return HAL_ERROR;
 80021dc:	2301      	movs	r3, #1
 80021de:	e0e9      	b.n	80023b4 <HAL_RCC_ClockConfig+0x1e8>
  /* To correctly read data from FLASH memory, the number of wait states (LATENCY)
    must be correctly programmed according to the frequency of the FLASH clock
    (HCLK) and the supply voltage of the device. */

  /* Increasing the number of wait states because of higher CPU frequency */
  if (FLatency > __HAL_FLASH_GET_LATENCY())
 80021e0:	4b76      	ldr	r3, [pc, #472]	; (80023bc <HAL_RCC_ClockConfig+0x1f0>)
 80021e2:	681b      	ldr	r3, [r3, #0]
 80021e4:	2207      	movs	r2, #7
 80021e6:	4013      	ands	r3, r2
 80021e8:	683a      	ldr	r2, [r7, #0]
 80021ea:	429a      	cmp	r2, r3
 80021ec:	d91e      	bls.n	800222c <HAL_RCC_ClockConfig+0x60>
  {
    /* Program the new number of wait states to the LATENCY bits in the FLASH_ACR register */
    __HAL_FLASH_SET_LATENCY(FLatency);
 80021ee:	4b73      	ldr	r3, [pc, #460]	; (80023bc <HAL_RCC_ClockConfig+0x1f0>)
 80021f0:	681b      	ldr	r3, [r3, #0]
 80021f2:	2207      	movs	r2, #7
 80021f4:	4393      	bics	r3, r2
 80021f6:	0019      	movs	r1, r3
 80021f8:	4b70      	ldr	r3, [pc, #448]	; (80023bc <HAL_RCC_ClockConfig+0x1f0>)
 80021fa:	683a      	ldr	r2, [r7, #0]
 80021fc:	430a      	orrs	r2, r1
 80021fe:	601a      	str	r2, [r3, #0]

    /* Check that the new number of wait states is taken into account to access the Flash
    memory by polling the FLASH_ACR register */
    tickstart = HAL_GetTick();
 8002200:	f7fe fb74 	bl	80008ec <HAL_GetTick>
 8002204:	0003      	movs	r3, r0
 8002206:	60fb      	str	r3, [r7, #12]

    while ((FLASH->ACR & FLASH_ACR_LATENCY) != FLatency)
 8002208:	e009      	b.n	800221e <HAL_RCC_ClockConfig+0x52>
    {
      if ((HAL_GetTick() - tickstart) > CLOCKSWITCH_TIMEOUT_VALUE)
 800220a:	f7fe fb6f 	bl	80008ec <HAL_GetTick>
 800220e:	0002      	movs	r2, r0
 8002210:	68fb      	ldr	r3, [r7, #12]
 8002212:	1ad3      	subs	r3, r2, r3
 8002214:	4a6a      	ldr	r2, [pc, #424]	; (80023c0 <HAL_RCC_ClockConfig+0x1f4>)
 8002216:	4293      	cmp	r3, r2
 8002218:	d901      	bls.n	800221e <HAL_RCC_ClockConfig+0x52>
      {
        return HAL_TIMEOUT;
 800221a:	2303      	movs	r3, #3
 800221c:	e0ca      	b.n	80023b4 <HAL_RCC_ClockConfig+0x1e8>
    while ((FLASH->ACR & FLASH_ACR_LATENCY) != FLatency)
 800221e:	4b67      	ldr	r3, [pc, #412]	; (80023bc <HAL_RCC_ClockConfig+0x1f0>)
 8002220:	681b      	ldr	r3, [r3, #0]
 8002222:	2207      	movs	r2, #7
 8002224:	4013      	ands	r3, r2
 8002226:	683a      	ldr	r2, [r7, #0]
 8002228:	429a      	cmp	r2, r3
 800222a:	d1ee      	bne.n	800220a <HAL_RCC_ClockConfig+0x3e>
      }
    }
  }

  /*-------------------------- HCLK Configuration --------------------------*/
  if (((RCC_ClkInitStruct->ClockType) & RCC_CLOCKTYPE_HCLK) == RCC_CLOCKTYPE_HCLK)
 800222c:	687b      	ldr	r3, [r7, #4]
 800222e:	681b      	ldr	r3, [r3, #0]
 8002230:	2202      	movs	r2, #2
 8002232:	4013      	ands	r3, r2
 8002234:	d015      	beq.n	8002262 <HAL_RCC_ClockConfig+0x96>
  {
    /* Set the highest APB divider in order to ensure that we do not go through
       a non-spec phase whatever we decrease or increase HCLK. */
    if (((RCC_ClkInitStruct->ClockType) & RCC_CLOCKTYPE_PCLK1) == RCC_CLOCKTYPE_PCLK1)
 8002236:	687b      	ldr	r3, [r7, #4]
 8002238:	681b      	ldr	r3, [r3, #0]
 800223a:	2204      	movs	r2, #4
 800223c:	4013      	ands	r3, r2
 800223e:	d006      	beq.n	800224e <HAL_RCC_ClockConfig+0x82>
    {
      MODIFY_REG(RCC->CFGR, RCC_CFGR_PPRE, RCC_HCLK_DIV16);
 8002240:	4b60      	ldr	r3, [pc, #384]	; (80023c4 <HAL_RCC_ClockConfig+0x1f8>)
 8002242:	689a      	ldr	r2, [r3, #8]
 8002244:	4b5f      	ldr	r3, [pc, #380]	; (80023c4 <HAL_RCC_ClockConfig+0x1f8>)
 8002246:	21e0      	movs	r1, #224	; 0xe0
 8002248:	01c9      	lsls	r1, r1, #7
 800224a:	430a      	orrs	r2, r1
 800224c:	609a      	str	r2, [r3, #8]
    }

    /* Set the new HCLK clock divider */
    assert_param(IS_RCC_HCLK(RCC_ClkInitStruct->AHBCLKDivider));
    MODIFY_REG(RCC->CFGR, RCC_CFGR_HPRE, RCC_ClkInitStruct->AHBCLKDivider);
 800224e:	4b5d      	ldr	r3, [pc, #372]	; (80023c4 <HAL_RCC_ClockConfig+0x1f8>)
 8002250:	689b      	ldr	r3, [r3, #8]
 8002252:	4a5d      	ldr	r2, [pc, #372]	; (80023c8 <HAL_RCC_ClockConfig+0x1fc>)
 8002254:	4013      	ands	r3, r2
 8002256:	0019      	movs	r1, r3
 8002258:	687b      	ldr	r3, [r7, #4]
 800225a:	689a      	ldr	r2, [r3, #8]
 800225c:	4b59      	ldr	r3, [pc, #356]	; (80023c4 <HAL_RCC_ClockConfig+0x1f8>)
 800225e:	430a      	orrs	r2, r1
 8002260:	609a      	str	r2, [r3, #8]
  }

  /*------------------------- SYSCLK Configuration ---------------------------*/
  if (((RCC_ClkInitStruct->ClockType) & RCC_CLOCKTYPE_SYSCLK) == RCC_CLOCKTYPE_SYSCLK)
 8002262:	687b      	ldr	r3, [r7, #4]
 8002264:	681b      	ldr	r3, [r3, #0]
 8002266:	2201      	movs	r2, #1
 8002268:	4013      	ands	r3, r2
 800226a:	d057      	beq.n	800231c <HAL_RCC_ClockConfig+0x150>
  {
    assert_param(IS_RCC_SYSCLKSOURCE(RCC_ClkInitStruct->SYSCLKSource));

    /* HSE is selected as System Clock Source */
    if (RCC_ClkInitStruct->SYSCLKSource == RCC_SYSCLKSOURCE_HSE)
 800226c:	687b      	ldr	r3, [r7, #4]
 800226e:	685b      	ldr	r3, [r3, #4]
 8002270:	2b01      	cmp	r3, #1
 8002272:	d107      	bne.n	8002284 <HAL_RCC_ClockConfig+0xb8>
    {
      /* Check the HSE ready flag */
      if (READ_BIT(RCC->CR, RCC_CR_HSERDY) == 0U)
 8002274:	4b53      	ldr	r3, [pc, #332]	; (80023c4 <HAL_RCC_ClockConfig+0x1f8>)
 8002276:	681a      	ldr	r2, [r3, #0]
 8002278:	2380      	movs	r3, #128	; 0x80
 800227a:	029b      	lsls	r3, r3, #10
 800227c:	4013      	ands	r3, r2
 800227e:	d12b      	bne.n	80022d8 <HAL_RCC_ClockConfig+0x10c>
      {
        return HAL_ERROR;
 8002280:	2301      	movs	r3, #1
 8002282:	e097      	b.n	80023b4 <HAL_RCC_ClockConfig+0x1e8>
      }
    }
    /* PLL is selected as System Clock Source */
    else if (RCC_ClkInitStruct->SYSCLKSource == RCC_SYSCLKSOURCE_PLLCLK)
 8002284:	687b      	ldr	r3, [r7, #4]
 8002286:	685b      	ldr	r3, [r3, #4]
 8002288:	2b02      	cmp	r3, #2
 800228a:	d107      	bne.n	800229c <HAL_RCC_ClockConfig+0xd0>
    {
      /* Check the PLL ready flag */
      if (READ_BIT(RCC->CR, RCC_CR_PLLRDY) == 0U)
 800228c:	4b4d      	ldr	r3, [pc, #308]	; (80023c4 <HAL_RCC_ClockConfig+0x1f8>)
 800228e:	681a      	ldr	r2, [r3, #0]
 8002290:	2380      	movs	r3, #128	; 0x80
 8002292:	049b      	lsls	r3, r3, #18
 8002294:	4013      	ands	r3, r2
 8002296:	d11f      	bne.n	80022d8 <HAL_RCC_ClockConfig+0x10c>
      {
        return HAL_ERROR;
 8002298:	2301      	movs	r3, #1
 800229a:	e08b      	b.n	80023b4 <HAL_RCC_ClockConfig+0x1e8>
      }
    }
    /* HSI is selected as System Clock Source */
    else if (RCC_ClkInitStruct->SYSCLKSource == RCC_SYSCLKSOURCE_HSI)
 800229c:	687b      	ldr	r3, [r7, #4]
 800229e:	685b      	ldr	r3, [r3, #4]
 80022a0:	2b00      	cmp	r3, #0
 80022a2:	d107      	bne.n	80022b4 <HAL_RCC_ClockConfig+0xe8>
    {
      /* Check the HSI ready flag */
      if (READ_BIT(RCC->CR, RCC_CR_HSIRDY) == 0U)
 80022a4:	4b47      	ldr	r3, [pc, #284]	; (80023c4 <HAL_RCC_ClockConfig+0x1f8>)
 80022a6:	681a      	ldr	r2, [r3, #0]
 80022a8:	2380      	movs	r3, #128	; 0x80
 80022aa:	00db      	lsls	r3, r3, #3
 80022ac:	4013      	ands	r3, r2
 80022ae:	d113      	bne.n	80022d8 <HAL_RCC_ClockConfig+0x10c>
      {
        return HAL_ERROR;
 80022b0:	2301      	movs	r3, #1
 80022b2:	e07f      	b.n	80023b4 <HAL_RCC_ClockConfig+0x1e8>
      }
    }
    /* LSI is selected as System Clock Source */
    else if (RCC_ClkInitStruct->SYSCLKSource == RCC_SYSCLKSOURCE_LSI)
 80022b4:	687b      	ldr	r3, [r7, #4]
 80022b6:	685b      	ldr	r3, [r3, #4]
 80022b8:	2b03      	cmp	r3, #3
 80022ba:	d106      	bne.n	80022ca <HAL_RCC_ClockConfig+0xfe>
    {
      /* Check the LSI ready flag */
      if (READ_BIT(RCC->CSR, RCC_CSR_LSIRDY) == 0U)
 80022bc:	4b41      	ldr	r3, [pc, #260]	; (80023c4 <HAL_RCC_ClockConfig+0x1f8>)
 80022be:	6e1b      	ldr	r3, [r3, #96]	; 0x60
 80022c0:	2202      	movs	r2, #2
 80022c2:	4013      	ands	r3, r2
 80022c4:	d108      	bne.n	80022d8 <HAL_RCC_ClockConfig+0x10c>
      {
        return HAL_ERROR;
 80022c6:	2301      	movs	r3, #1
 80022c8:	e074      	b.n	80023b4 <HAL_RCC_ClockConfig+0x1e8>
    }
    /* LSE is selected as System Clock Source */
    else
    {
      /* Check the LSE ready flag */
      if (READ_BIT(RCC->BDCR, RCC_BDCR_LSERDY) == 0U)
 80022ca:	4b3e      	ldr	r3, [pc, #248]	; (80023c4 <HAL_RCC_ClockConfig+0x1f8>)
 80022cc:	6ddb      	ldr	r3, [r3, #92]	; 0x5c
 80022ce:	2202      	movs	r2, #2
 80022d0:	4013      	ands	r3, r2
 80022d2:	d101      	bne.n	80022d8 <HAL_RCC_ClockConfig+0x10c>
      {
        return HAL_ERROR;
 80022d4:	2301      	movs	r3, #1
 80022d6:	e06d      	b.n	80023b4 <HAL_RCC_ClockConfig+0x1e8>
      }
    }
    MODIFY_REG(RCC->CFGR, RCC_CFGR_SW, RCC_ClkInitStruct->SYSCLKSource);
 80022d8:	4b3a      	ldr	r3, [pc, #232]	; (80023c4 <HAL_RCC_ClockConfig+0x1f8>)
 80022da:	689b      	ldr	r3, [r3, #8]
 80022dc:	2207      	movs	r2, #7
 80022de:	4393      	bics	r3, r2
 80022e0:	0019      	movs	r1, r3
 80022e2:	687b      	ldr	r3, [r7, #4]
 80022e4:	685a      	ldr	r2, [r3, #4]
 80022e6:	4b37      	ldr	r3, [pc, #220]	; (80023c4 <HAL_RCC_ClockConfig+0x1f8>)
 80022e8:	430a      	orrs	r2, r1
 80022ea:	609a      	str	r2, [r3, #8]

    /* Get Start Tick*/
    tickstart = HAL_GetTick();
 80022ec:	f7fe fafe 	bl	80008ec <HAL_GetTick>
 80022f0:	0003      	movs	r3, r0
 80022f2:	60fb      	str	r3, [r7, #12]

    while (__HAL_RCC_GET_SYSCLK_SOURCE() != (RCC_ClkInitStruct->SYSCLKSource << RCC_CFGR_SWS_Pos))
 80022f4:	e009      	b.n	800230a <HAL_RCC_ClockConfig+0x13e>
    {
      if ((HAL_GetTick() - tickstart) > CLOCKSWITCH_TIMEOUT_VALUE)
 80022f6:	f7fe faf9 	bl	80008ec <HAL_GetTick>
 80022fa:	0002      	movs	r2, r0
 80022fc:	68fb      	ldr	r3, [r7, #12]
 80022fe:	1ad3      	subs	r3, r2, r3
 8002300:	4a2f      	ldr	r2, [pc, #188]	; (80023c0 <HAL_RCC_ClockConfig+0x1f4>)
 8002302:	4293      	cmp	r3, r2
 8002304:	d901      	bls.n	800230a <HAL_RCC_ClockConfig+0x13e>
      {
        return HAL_TIMEOUT;
 8002306:	2303      	movs	r3, #3
 8002308:	e054      	b.n	80023b4 <HAL_RCC_ClockConfig+0x1e8>
    while (__HAL_RCC_GET_SYSCLK_SOURCE() != (RCC_ClkInitStruct->SYSCLKSource << RCC_CFGR_SWS_Pos))
 800230a:	4b2e      	ldr	r3, [pc, #184]	; (80023c4 <HAL_RCC_ClockConfig+0x1f8>)
 800230c:	689b      	ldr	r3, [r3, #8]
 800230e:	2238      	movs	r2, #56	; 0x38
 8002310:	401a      	ands	r2, r3
 8002312:	687b      	ldr	r3, [r7, #4]
 8002314:	685b      	ldr	r3, [r3, #4]
 8002316:	00db      	lsls	r3, r3, #3
 8002318:	429a      	cmp	r2, r3
 800231a:	d1ec      	bne.n	80022f6 <HAL_RCC_ClockConfig+0x12a>
      }
    }
  }

  /* Decreasing the number of wait states because of lower CPU frequency */
  if (FLatency < __HAL_FLASH_GET_LATENCY())
 800231c:	4b27      	ldr	r3, [pc, #156]	; (80023bc <HAL_RCC_ClockConfig+0x1f0>)
 800231e:	681b      	ldr	r3, [r3, #0]
 8002320:	2207      	movs	r2, #7
 8002322:	4013      	ands	r3, r2
 8002324:	683a      	ldr	r2, [r7, #0]
 8002326:	429a      	cmp	r2, r3
 8002328:	d21e      	bcs.n	8002368 <HAL_RCC_ClockConfig+0x19c>
  {
    /* Program the new number of wait states to the LATENCY bits in the FLASH_ACR register */
    __HAL_FLASH_SET_LATENCY(FLatency);
 800232a:	4b24      	ldr	r3, [pc, #144]	; (80023bc <HAL_RCC_ClockConfig+0x1f0>)
 800232c:	681b      	ldr	r3, [r3, #0]
 800232e:	2207      	movs	r2, #7
 8002330:	4393      	bics	r3, r2
 8002332:	0019      	movs	r1, r3
 8002334:	4b21      	ldr	r3, [pc, #132]	; (80023bc <HAL_RCC_ClockConfig+0x1f0>)
 8002336:	683a      	ldr	r2, [r7, #0]
 8002338:	430a      	orrs	r2, r1
 800233a:	601a      	str	r2, [r3, #0]

    /* Check that the new number of wait states is taken into account to access the Flash
    memory by polling the FLASH_ACR register */
    tickstart = HAL_GetTick();
 800233c:	f7fe fad6 	bl	80008ec <HAL_GetTick>
 8002340:	0003      	movs	r3, r0
 8002342:	60fb      	str	r3, [r7, #12]

    while ((FLASH->ACR & FLASH_ACR_LATENCY) != FLatency)
 8002344:	e009      	b.n	800235a <HAL_RCC_ClockConfig+0x18e>
    {
      if ((HAL_GetTick() - tickstart) > CLOCKSWITCH_TIMEOUT_VALUE)
 8002346:	f7fe fad1 	bl	80008ec <HAL_GetTick>
 800234a:	0002      	movs	r2, r0
 800234c:	68fb      	ldr	r3, [r7, #12]
 800234e:	1ad3      	subs	r3, r2, r3
 8002350:	4a1b      	ldr	r2, [pc, #108]	; (80023c0 <HAL_RCC_ClockConfig+0x1f4>)
 8002352:	4293      	cmp	r3, r2
 8002354:	d901      	bls.n	800235a <HAL_RCC_ClockConfig+0x18e>
      {
        return HAL_TIMEOUT;
 8002356:	2303      	movs	r3, #3
 8002358:	e02c      	b.n	80023b4 <HAL_RCC_ClockConfig+0x1e8>
    while ((FLASH->ACR & FLASH_ACR_LATENCY) != FLatency)
 800235a:	4b18      	ldr	r3, [pc, #96]	; (80023bc <HAL_RCC_ClockConfig+0x1f0>)
 800235c:	681b      	ldr	r3, [r3, #0]
 800235e:	2207      	movs	r2, #7
 8002360:	4013      	ands	r3, r2
 8002362:	683a      	ldr	r2, [r7, #0]
 8002364:	429a      	cmp	r2, r3
 8002366:	d1ee      	bne.n	8002346 <HAL_RCC_ClockConfig+0x17a>
      }
    }
  }

  /*-------------------------- PCLK1 Configuration ---------------------------*/
  if (((RCC_ClkInitStruct->ClockType) & RCC_CLOCKTYPE_PCLK1) == RCC_CLOCKTYPE_PCLK1)
 8002368:	687b      	ldr	r3, [r7, #4]
 800236a:	681b      	ldr	r3, [r3, #0]
 800236c:	2204      	movs	r2, #4
 800236e:	4013      	ands	r3, r2
 8002370:	d009      	beq.n	8002386 <HAL_RCC_ClockConfig+0x1ba>
  {
    assert_param(IS_RCC_PCLK(RCC_ClkInitStruct->APB1CLKDivider));
    MODIFY_REG(RCC->CFGR, RCC_CFGR_PPRE, RCC_ClkInitStruct->APB1CLKDivider);
 8002372:	4b14      	ldr	r3, [pc, #80]	; (80023c4 <HAL_RCC_ClockConfig+0x1f8>)
 8002374:	689b      	ldr	r3, [r3, #8]
 8002376:	4a15      	ldr	r2, [pc, #84]	; (80023cc <HAL_RCC_ClockConfig+0x200>)
 8002378:	4013      	ands	r3, r2
 800237a:	0019      	movs	r1, r3
 800237c:	687b      	ldr	r3, [r7, #4]
 800237e:	68da      	ldr	r2, [r3, #12]
 8002380:	4b10      	ldr	r3, [pc, #64]	; (80023c4 <HAL_RCC_ClockConfig+0x1f8>)
 8002382:	430a      	orrs	r2, r1
 8002384:	609a      	str	r2, [r3, #8]
  }

  /* Update the SystemCoreClock global variable */
  SystemCoreClock = (HAL_RCC_GetSysClockFreq() >> ((AHBPrescTable[(RCC->CFGR & RCC_CFGR_HPRE) >> RCC_CFGR_HPRE_Pos]) & 0x1FU));
 8002386:	f000 f829 	bl	80023dc <HAL_RCC_GetSysClockFreq>
 800238a:	0001      	movs	r1, r0
 800238c:	4b0d      	ldr	r3, [pc, #52]	; (80023c4 <HAL_RCC_ClockConfig+0x1f8>)
 800238e:	689b      	ldr	r3, [r3, #8]
 8002390:	0a1b      	lsrs	r3, r3, #8
 8002392:	220f      	movs	r2, #15
 8002394:	401a      	ands	r2, r3
 8002396:	4b0e      	ldr	r3, [pc, #56]	; (80023d0 <HAL_RCC_ClockConfig+0x204>)
 8002398:	0092      	lsls	r2, r2, #2
 800239a:	58d3      	ldr	r3, [r2, r3]
 800239c:	221f      	movs	r2, #31
 800239e:	4013      	ands	r3, r2
 80023a0:	000a      	movs	r2, r1
 80023a2:	40da      	lsrs	r2, r3
 80023a4:	4b0b      	ldr	r3, [pc, #44]	; (80023d4 <HAL_RCC_ClockConfig+0x208>)
 80023a6:	601a      	str	r2, [r3, #0]

  /* Configure the source of time base considering new system clocks settings*/
  return HAL_InitTick(uwTickPrio);
 80023a8:	4b0b      	ldr	r3, [pc, #44]	; (80023d8 <HAL_RCC_ClockConfig+0x20c>)
 80023aa:	681b      	ldr	r3, [r3, #0]
 80023ac:	0018      	movs	r0, r3
 80023ae:	f7fe fa41 	bl	8000834 <HAL_InitTick>
 80023b2:	0003      	movs	r3, r0
}
 80023b4:	0018      	movs	r0, r3
 80023b6:	46bd      	mov	sp, r7
 80023b8:	b004      	add	sp, #16
 80023ba:	bd80      	pop	{r7, pc}
 80023bc:	40022000 	.word	0x40022000
 80023c0:	00001388 	.word	0x00001388
 80023c4:	40021000 	.word	0x40021000
 80023c8:	fffff0ff 	.word	0xfffff0ff
 80023cc:	ffff8fff 	.word	0xffff8fff
 80023d0:	080039a4 	.word	0x080039a4
 80023d4:	20000000 	.word	0x20000000
 80023d8:	20000004 	.word	0x20000004

080023dc <HAL_RCC_GetSysClockFreq>:
  *
  *
  * @retval SYSCLK frequency
  */
uint32_t HAL_RCC_GetSysClockFreq(void)
{
 80023dc:	b580      	push	{r7, lr}
 80023de:	b086      	sub	sp, #24
 80023e0:	af00      	add	r7, sp, #0
  uint32_t pllvco, pllsource, pllr, pllm, hsidiv;
  uint32_t sysclockfreq;

  if (__HAL_RCC_GET_SYSCLK_SOURCE() == RCC_SYSCLKSOURCE_STATUS_HSI)
 80023e2:	4b3c      	ldr	r3, [pc, #240]	; (80024d4 <HAL_RCC_GetSysClockFreq+0xf8>)
 80023e4:	689b      	ldr	r3, [r3, #8]
 80023e6:	2238      	movs	r2, #56	; 0x38
 80023e8:	4013      	ands	r3, r2
 80023ea:	d10f      	bne.n	800240c <HAL_RCC_GetSysClockFreq+0x30>
  {
    /* HSISYS can be derived for HSI16 */
    hsidiv = (1UL << ((READ_BIT(RCC->CR, RCC_CR_HSIDIV)) >> RCC_CR_HSIDIV_Pos));
 80023ec:	4b39      	ldr	r3, [pc, #228]	; (80024d4 <HAL_RCC_GetSysClockFreq+0xf8>)
 80023ee:	681b      	ldr	r3, [r3, #0]
 80023f0:	0adb      	lsrs	r3, r3, #11
 80023f2:	2207      	movs	r2, #7
 80023f4:	4013      	ands	r3, r2
 80023f6:	2201      	movs	r2, #1
 80023f8:	409a      	lsls	r2, r3
 80023fa:	0013      	movs	r3, r2
 80023fc:	603b      	str	r3, [r7, #0]

    /* HSI used as system clock source */
    sysclockfreq = (HSI_VALUE / hsidiv);
 80023fe:	6839      	ldr	r1, [r7, #0]
 8002400:	4835      	ldr	r0, [pc, #212]	; (80024d8 <HAL_RCC_GetSysClockFreq+0xfc>)
 8002402:	f7fd fe7f 	bl	8000104 <__udivsi3>
 8002406:	0003      	movs	r3, r0
 8002408:	613b      	str	r3, [r7, #16]
 800240a:	e05d      	b.n	80024c8 <HAL_RCC_GetSysClockFreq+0xec>
  }
  else if (__HAL_RCC_GET_SYSCLK_SOURCE() == RCC_SYSCLKSOURCE_STATUS_HSE)
 800240c:	4b31      	ldr	r3, [pc, #196]	; (80024d4 <HAL_RCC_GetSysClockFreq+0xf8>)
 800240e:	689b      	ldr	r3, [r3, #8]
 8002410:	2238      	movs	r2, #56	; 0x38
 8002412:	4013      	ands	r3, r2
 8002414:	2b08      	cmp	r3, #8
 8002416:	d102      	bne.n	800241e <HAL_RCC_GetSysClockFreq+0x42>
  {
    /* HSE used as system clock source */
    sysclockfreq = HSE_VALUE;
 8002418:	4b30      	ldr	r3, [pc, #192]	; (80024dc <HAL_RCC_GetSysClockFreq+0x100>)
 800241a:	613b      	str	r3, [r7, #16]
 800241c:	e054      	b.n	80024c8 <HAL_RCC_GetSysClockFreq+0xec>
  }
  else if (__HAL_RCC_GET_SYSCLK_SOURCE() == RCC_SYSCLKSOURCE_STATUS_PLLCLK)
 800241e:	4b2d      	ldr	r3, [pc, #180]	; (80024d4 <HAL_RCC_GetSysClockFreq+0xf8>)
 8002420:	689b      	ldr	r3, [r3, #8]
 8002422:	2238      	movs	r2, #56	; 0x38
 8002424:	4013      	ands	r3, r2
 8002426:	2b10      	cmp	r3, #16
 8002428:	d138      	bne.n	800249c <HAL_RCC_GetSysClockFreq+0xc0>
    /* PLL used as system clock  source */

    /* PLL_VCO = ((HSE_VALUE or HSI_VALUE)/ PLLM) * PLLN
    SYSCLK = PLL_VCO / PLLR
    */
    pllsource = (RCC->PLLCFGR & RCC_PLLCFGR_PLLSRC);
 800242a:	4b2a      	ldr	r3, [pc, #168]	; (80024d4 <HAL_RCC_GetSysClockFreq+0xf8>)
 800242c:	68db      	ldr	r3, [r3, #12]
 800242e:	2203      	movs	r2, #3
 8002430:	4013      	ands	r3, r2
 8002432:	60fb      	str	r3, [r7, #12]
    pllm = ((RCC->PLLCFGR & RCC_PLLCFGR_PLLM) >> RCC_PLLCFGR_PLLM_Pos) + 1U ;
 8002434:	4b27      	ldr	r3, [pc, #156]	; (80024d4 <HAL_RCC_GetSysClockFreq+0xf8>)
 8002436:	68db      	ldr	r3, [r3, #12]
 8002438:	091b      	lsrs	r3, r3, #4
 800243a:	2207      	movs	r2, #7
 800243c:	4013      	ands	r3, r2
 800243e:	3301      	adds	r3, #1
 8002440:	60bb      	str	r3, [r7, #8]

    switch (pllsource)
 8002442:	68fb      	ldr	r3, [r7, #12]
 8002444:	2b03      	cmp	r3, #3
 8002446:	d10d      	bne.n	8002464 <HAL_RCC_GetSysClockFreq+0x88>
    {
      case RCC_PLLSOURCE_HSE:  /* HSE used as PLL clock source */
        pllvco = (HSE_VALUE / pllm) * ((RCC->PLLCFGR & RCC_PLLCFGR_PLLN) >> RCC_PLLCFGR_PLLN_Pos);
 8002448:	68b9      	ldr	r1, [r7, #8]
 800244a:	4824      	ldr	r0, [pc, #144]	; (80024dc <HAL_RCC_GetSysClockFreq+0x100>)
 800244c:	f7fd fe5a 	bl	8000104 <__udivsi3>
 8002450:	0003      	movs	r3, r0
 8002452:	0019      	movs	r1, r3
 8002454:	4b1f      	ldr	r3, [pc, #124]	; (80024d4 <HAL_RCC_GetSysClockFreq+0xf8>)
 8002456:	68db      	ldr	r3, [r3, #12]
 8002458:	0a1b      	lsrs	r3, r3, #8
 800245a:	227f      	movs	r2, #127	; 0x7f
 800245c:	4013      	ands	r3, r2
 800245e:	434b      	muls	r3, r1
 8002460:	617b      	str	r3, [r7, #20]
        break;
 8002462:	e00d      	b.n	8002480 <HAL_RCC_GetSysClockFreq+0xa4>

      case RCC_PLLSOURCE_HSI:  /* HSI16 used as PLL clock source */
      default:                 /* HSI16 used as PLL clock source */
        pllvco = (HSI_VALUE / pllm) * ((RCC->PLLCFGR & RCC_PLLCFGR_PLLN) >> RCC_PLLCFGR_PLLN_Pos) ;
 8002464:	68b9      	ldr	r1, [r7, #8]
 8002466:	481c      	ldr	r0, [pc, #112]	; (80024d8 <HAL_RCC_GetSysClockFreq+0xfc>)
 8002468:	f7fd fe4c 	bl	8000104 <__udivsi3>
 800246c:	0003      	movs	r3, r0
 800246e:	0019      	movs	r1, r3
 8002470:	4b18      	ldr	r3, [pc, #96]	; (80024d4 <HAL_RCC_GetSysClockFreq+0xf8>)
 8002472:	68db      	ldr	r3, [r3, #12]
 8002474:	0a1b      	lsrs	r3, r3, #8
 8002476:	227f      	movs	r2, #127	; 0x7f
 8002478:	4013      	ands	r3, r2
 800247a:	434b      	muls	r3, r1
 800247c:	617b      	str	r3, [r7, #20]
        break;
 800247e:	46c0      	nop			; (mov r8, r8)
    }
    pllr = (((RCC->PLLCFGR & RCC_PLLCFGR_PLLR) >> RCC_PLLCFGR_PLLR_Pos) + 1U);
 8002480:	4b14      	ldr	r3, [pc, #80]	; (80024d4 <HAL_RCC_GetSysClockFreq+0xf8>)
 8002482:	68db      	ldr	r3, [r3, #12]
 8002484:	0f5b      	lsrs	r3, r3, #29
 8002486:	2207      	movs	r2, #7
 8002488:	4013      	ands	r3, r2
 800248a:	3301      	adds	r3, #1
 800248c:	607b      	str	r3, [r7, #4]
    sysclockfreq = pllvco / pllr;
 800248e:	6879      	ldr	r1, [r7, #4]
 8002490:	6978      	ldr	r0, [r7, #20]
 8002492:	f7fd fe37 	bl	8000104 <__udivsi3>
 8002496:	0003      	movs	r3, r0
 8002498:	613b      	str	r3, [r7, #16]
 800249a:	e015      	b.n	80024c8 <HAL_RCC_GetSysClockFreq+0xec>
  }
  else if (__HAL_RCC_GET_SYSCLK_SOURCE() == RCC_SYSCLKSOURCE_STATUS_LSE)
 800249c:	4b0d      	ldr	r3, [pc, #52]	; (80024d4 <HAL_RCC_GetSysClockFreq+0xf8>)
 800249e:	689b      	ldr	r3, [r3, #8]
 80024a0:	2238      	movs	r2, #56	; 0x38
 80024a2:	4013      	ands	r3, r2
 80024a4:	2b20      	cmp	r3, #32
 80024a6:	d103      	bne.n	80024b0 <HAL_RCC_GetSysClockFreq+0xd4>
  {
    /* LSE used as system clock source */
    sysclockfreq = LSE_VALUE;
 80024a8:	2380      	movs	r3, #128	; 0x80
 80024aa:	021b      	lsls	r3, r3, #8
 80024ac:	613b      	str	r3, [r7, #16]
 80024ae:	e00b      	b.n	80024c8 <HAL_RCC_GetSysClockFreq+0xec>
  }
  else if (__HAL_RCC_GET_SYSCLK_SOURCE() == RCC_SYSCLKSOURCE_STATUS_LSI)
 80024b0:	4b08      	ldr	r3, [pc, #32]	; (80024d4 <HAL_RCC_GetSysClockFreq+0xf8>)
 80024b2:	689b      	ldr	r3, [r3, #8]
 80024b4:	2238      	movs	r2, #56	; 0x38
 80024b6:	4013      	ands	r3, r2
 80024b8:	2b18      	cmp	r3, #24
 80024ba:	d103      	bne.n	80024c4 <HAL_RCC_GetSysClockFreq+0xe8>
  {
    /* LSI used as system clock source */
    sysclockfreq = LSI_VALUE;
 80024bc:	23fa      	movs	r3, #250	; 0xfa
 80024be:	01db      	lsls	r3, r3, #7
 80024c0:	613b      	str	r3, [r7, #16]
 80024c2:	e001      	b.n	80024c8 <HAL_RCC_GetSysClockFreq+0xec>
  }
  else
  {
    sysclockfreq = 0U;
 80024c4:	2300      	movs	r3, #0
 80024c6:	613b      	str	r3, [r7, #16]
  }

  return sysclockfreq;
 80024c8:	693b      	ldr	r3, [r7, #16]
}
 80024ca:	0018      	movs	r0, r3
 80024cc:	46bd      	mov	sp, r7
 80024ce:	b006      	add	sp, #24
 80024d0:	bd80      	pop	{r7, pc}
 80024d2:	46c0      	nop			; (mov r8, r8)
 80024d4:	40021000 	.word	0x40021000
 80024d8:	00f42400 	.word	0x00f42400
 80024dc:	007a1200 	.word	0x007a1200

080024e0 <HAL_RCCEx_PeriphCLKConfig>:
  *         the RTC clock source: in this case the access to Backup domain is enabled.
  *
  * @retval HAL status
  */
HAL_StatusTypeDef HAL_RCCEx_PeriphCLKConfig(RCC_PeriphCLKInitTypeDef  *PeriphClkInit)
{
 80024e0:	b580      	push	{r7, lr}
 80024e2:	b086      	sub	sp, #24
 80024e4:	af00      	add	r7, sp, #0
 80024e6:	6078      	str	r0, [r7, #4]
  uint32_t tmpregister;
  uint32_t tickstart;
  HAL_StatusTypeDef ret    = HAL_OK;   /* Intermediate status */
 80024e8:	2313      	movs	r3, #19
 80024ea:	18fb      	adds	r3, r7, r3
 80024ec:	2200      	movs	r2, #0
 80024ee:	701a      	strb	r2, [r3, #0]
  HAL_StatusTypeDef status = HAL_OK;   /* Final status */
 80024f0:	2312      	movs	r3, #18
 80024f2:	18fb      	adds	r3, r7, r3
 80024f4:	2200      	movs	r2, #0
 80024f6:	701a      	strb	r2, [r3, #0]

  /* Check the parameters */
  assert_param(IS_RCC_PERIPHCLOCK(PeriphClkInit->PeriphClockSelection));

  /*-------------------------- RTC clock source configuration ----------------------*/
  if ((PeriphClkInit->PeriphClockSelection & RCC_PERIPHCLK_RTC) == RCC_PERIPHCLK_RTC)
 80024f8:	687b      	ldr	r3, [r7, #4]
 80024fa:	681a      	ldr	r2, [r3, #0]
 80024fc:	2380      	movs	r3, #128	; 0x80
 80024fe:	029b      	lsls	r3, r3, #10
 8002500:	4013      	ands	r3, r2
 8002502:	d100      	bne.n	8002506 <HAL_RCCEx_PeriphCLKConfig+0x26>
 8002504:	e0ad      	b.n	8002662 <HAL_RCCEx_PeriphCLKConfig+0x182>
  {
    FlagStatus       pwrclkchanged = RESET;
 8002506:	2011      	movs	r0, #17
 8002508:	183b      	adds	r3, r7, r0
 800250a:	2200      	movs	r2, #0
 800250c:	701a      	strb	r2, [r3, #0]

    /* Check for RTC Parameters used to output RTCCLK */
    assert_param(IS_RCC_RTCCLKSOURCE(PeriphClkInit->RTCClockSelection));

    /* Enable Power Clock */
    if (__HAL_RCC_PWR_IS_CLK_DISABLED())
 800250e:	4b47      	ldr	r3, [pc, #284]	; (800262c <HAL_RCCEx_PeriphCLKConfig+0x14c>)
 8002510:	6bda      	ldr	r2, [r3, #60]	; 0x3c
 8002512:	2380      	movs	r3, #128	; 0x80
 8002514:	055b      	lsls	r3, r3, #21
 8002516:	4013      	ands	r3, r2
 8002518:	d110      	bne.n	800253c <HAL_RCCEx_PeriphCLKConfig+0x5c>
    {
      __HAL_RCC_PWR_CLK_ENABLE();
 800251a:	4b44      	ldr	r3, [pc, #272]	; (800262c <HAL_RCCEx_PeriphCLKConfig+0x14c>)
 800251c:	6bda      	ldr	r2, [r3, #60]	; 0x3c
 800251e:	4b43      	ldr	r3, [pc, #268]	; (800262c <HAL_RCCEx_PeriphCLKConfig+0x14c>)
 8002520:	2180      	movs	r1, #128	; 0x80
 8002522:	0549      	lsls	r1, r1, #21
 8002524:	430a      	orrs	r2, r1
 8002526:	63da      	str	r2, [r3, #60]	; 0x3c
 8002528:	4b40      	ldr	r3, [pc, #256]	; (800262c <HAL_RCCEx_PeriphCLKConfig+0x14c>)
 800252a:	6bda      	ldr	r2, [r3, #60]	; 0x3c
 800252c:	2380      	movs	r3, #128	; 0x80
 800252e:	055b      	lsls	r3, r3, #21
 8002530:	4013      	ands	r3, r2
 8002532:	60bb      	str	r3, [r7, #8]
 8002534:	68bb      	ldr	r3, [r7, #8]
      pwrclkchanged = SET;
 8002536:	183b      	adds	r3, r7, r0
 8002538:	2201      	movs	r2, #1
 800253a:	701a      	strb	r2, [r3, #0]
    }

    /* Enable write access to Backup domain */
    SET_BIT(PWR->CR1, PWR_CR1_DBP);
 800253c:	4b3c      	ldr	r3, [pc, #240]	; (8002630 <HAL_RCCEx_PeriphCLKConfig+0x150>)
 800253e:	681a      	ldr	r2, [r3, #0]
 8002540:	4b3b      	ldr	r3, [pc, #236]	; (8002630 <HAL_RCCEx_PeriphCLKConfig+0x150>)
 8002542:	2180      	movs	r1, #128	; 0x80
 8002544:	0049      	lsls	r1, r1, #1
 8002546:	430a      	orrs	r2, r1
 8002548:	601a      	str	r2, [r3, #0]

    /* Wait for Backup domain Write protection disable */
    tickstart = HAL_GetTick();
 800254a:	f7fe f9cf 	bl	80008ec <HAL_GetTick>
 800254e:	0003      	movs	r3, r0
 8002550:	60fb      	str	r3, [r7, #12]

    while ((PWR->CR1 & PWR_CR1_DBP) == 0U)
 8002552:	e00b      	b.n	800256c <HAL_RCCEx_PeriphCLKConfig+0x8c>
    {
      if ((HAL_GetTick() - tickstart) > RCC_DBP_TIMEOUT_VALUE)
 8002554:	f7fe f9ca 	bl	80008ec <HAL_GetTick>
 8002558:	0002      	movs	r2, r0
 800255a:	68fb      	ldr	r3, [r7, #12]
 800255c:	1ad3      	subs	r3, r2, r3
 800255e:	2b02      	cmp	r3, #2
 8002560:	d904      	bls.n	800256c <HAL_RCCEx_PeriphCLKConfig+0x8c>
      {
        ret = HAL_TIMEOUT;
 8002562:	2313      	movs	r3, #19
 8002564:	18fb      	adds	r3, r7, r3
 8002566:	2203      	movs	r2, #3
 8002568:	701a      	strb	r2, [r3, #0]
        break;
 800256a:	e005      	b.n	8002578 <HAL_RCCEx_PeriphCLKConfig+0x98>
    while ((PWR->CR1 & PWR_CR1_DBP) == 0U)
 800256c:	4b30      	ldr	r3, [pc, #192]	; (8002630 <HAL_RCCEx_PeriphCLKConfig+0x150>)
 800256e:	681a      	ldr	r2, [r3, #0]
 8002570:	2380      	movs	r3, #128	; 0x80
 8002572:	005b      	lsls	r3, r3, #1
 8002574:	4013      	ands	r3, r2
 8002576:	d0ed      	beq.n	8002554 <HAL_RCCEx_PeriphCLKConfig+0x74>
      }
    }

    if (ret == HAL_OK)
 8002578:	2313      	movs	r3, #19
 800257a:	18fb      	adds	r3, r7, r3
 800257c:	781b      	ldrb	r3, [r3, #0]
 800257e:	2b00      	cmp	r3, #0
 8002580:	d15e      	bne.n	8002640 <HAL_RCCEx_PeriphCLKConfig+0x160>
    {
      /* Reset the Backup domain only if the RTC Clock source selection is modified from default */
      tmpregister = READ_BIT(RCC->BDCR, RCC_BDCR_RTCSEL);
 8002582:	4b2a      	ldr	r3, [pc, #168]	; (800262c <HAL_RCCEx_PeriphCLKConfig+0x14c>)
 8002584:	6dda      	ldr	r2, [r3, #92]	; 0x5c
 8002586:	23c0      	movs	r3, #192	; 0xc0
 8002588:	009b      	lsls	r3, r3, #2
 800258a:	4013      	ands	r3, r2
 800258c:	617b      	str	r3, [r7, #20]

      /* Reset the Backup domain only if the RTC Clock source selection is modified */
      if ((tmpregister != RCC_RTCCLKSOURCE_NONE) && (tmpregister != PeriphClkInit->RTCClockSelection))
 800258e:	697b      	ldr	r3, [r7, #20]
 8002590:	2b00      	cmp	r3, #0
 8002592:	d019      	beq.n	80025c8 <HAL_RCCEx_PeriphCLKConfig+0xe8>
 8002594:	687b      	ldr	r3, [r7, #4]
 8002596:	6c1b      	ldr	r3, [r3, #64]	; 0x40
 8002598:	697a      	ldr	r2, [r7, #20]
 800259a:	429a      	cmp	r2, r3
 800259c:	d014      	beq.n	80025c8 <HAL_RCCEx_PeriphCLKConfig+0xe8>
      {
        /* Store the content of BDCR register before the reset of Backup Domain */
        tmpregister = READ_BIT(RCC->BDCR, ~(RCC_BDCR_RTCSEL));
 800259e:	4b23      	ldr	r3, [pc, #140]	; (800262c <HAL_RCCEx_PeriphCLKConfig+0x14c>)
 80025a0:	6ddb      	ldr	r3, [r3, #92]	; 0x5c
 80025a2:	4a24      	ldr	r2, [pc, #144]	; (8002634 <HAL_RCCEx_PeriphCLKConfig+0x154>)
 80025a4:	4013      	ands	r3, r2
 80025a6:	617b      	str	r3, [r7, #20]
        /* RTC Clock selection can be changed only if the Backup Domain is reset */
        __HAL_RCC_BACKUPRESET_FORCE();
 80025a8:	4b20      	ldr	r3, [pc, #128]	; (800262c <HAL_RCCEx_PeriphCLKConfig+0x14c>)
 80025aa:	6dda      	ldr	r2, [r3, #92]	; 0x5c
 80025ac:	4b1f      	ldr	r3, [pc, #124]	; (800262c <HAL_RCCEx_PeriphCLKConfig+0x14c>)
 80025ae:	2180      	movs	r1, #128	; 0x80
 80025b0:	0249      	lsls	r1, r1, #9
 80025b2:	430a      	orrs	r2, r1
 80025b4:	65da      	str	r2, [r3, #92]	; 0x5c
        __HAL_RCC_BACKUPRESET_RELEASE();
 80025b6:	4b1d      	ldr	r3, [pc, #116]	; (800262c <HAL_RCCEx_PeriphCLKConfig+0x14c>)
 80025b8:	6dda      	ldr	r2, [r3, #92]	; 0x5c
 80025ba:	4b1c      	ldr	r3, [pc, #112]	; (800262c <HAL_RCCEx_PeriphCLKConfig+0x14c>)
 80025bc:	491e      	ldr	r1, [pc, #120]	; (8002638 <HAL_RCCEx_PeriphCLKConfig+0x158>)
 80025be:	400a      	ands	r2, r1
 80025c0:	65da      	str	r2, [r3, #92]	; 0x5c
        /* Restore the Content of BDCR register */
        RCC->BDCR = tmpregister;
 80025c2:	4b1a      	ldr	r3, [pc, #104]	; (800262c <HAL_RCCEx_PeriphCLKConfig+0x14c>)
 80025c4:	697a      	ldr	r2, [r7, #20]
 80025c6:	65da      	str	r2, [r3, #92]	; 0x5c
      }

      /* Wait for LSE reactivation if LSE was enable prior to Backup Domain reset */
      if (HAL_IS_BIT_SET(tmpregister, RCC_BDCR_LSEON))
 80025c8:	697b      	ldr	r3, [r7, #20]
 80025ca:	2201      	movs	r2, #1
 80025cc:	4013      	ands	r3, r2
 80025ce:	d016      	beq.n	80025fe <HAL_RCCEx_PeriphCLKConfig+0x11e>
      {
        /* Get Start Tick*/
        tickstart = HAL_GetTick();
 80025d0:	f7fe f98c 	bl	80008ec <HAL_GetTick>
 80025d4:	0003      	movs	r3, r0
 80025d6:	60fb      	str	r3, [r7, #12]

        /* Wait till LSE is ready */
        while (READ_BIT(RCC->BDCR, RCC_BDCR_LSERDY) == 0U)
 80025d8:	e00c      	b.n	80025f4 <HAL_RCCEx_PeriphCLKConfig+0x114>
        {
          if ((HAL_GetTick() - tickstart) > RCC_LSE_TIMEOUT_VALUE)
 80025da:	f7fe f987 	bl	80008ec <HAL_GetTick>
 80025de:	0002      	movs	r2, r0
 80025e0:	68fb      	ldr	r3, [r7, #12]
 80025e2:	1ad3      	subs	r3, r2, r3
 80025e4:	4a15      	ldr	r2, [pc, #84]	; (800263c <HAL_RCCEx_PeriphCLKConfig+0x15c>)
 80025e6:	4293      	cmp	r3, r2
 80025e8:	d904      	bls.n	80025f4 <HAL_RCCEx_PeriphCLKConfig+0x114>
          {
            ret = HAL_TIMEOUT;
 80025ea:	2313      	movs	r3, #19
 80025ec:	18fb      	adds	r3, r7, r3
 80025ee:	2203      	movs	r2, #3
 80025f0:	701a      	strb	r2, [r3, #0]
            break;
 80025f2:	e004      	b.n	80025fe <HAL_RCCEx_PeriphCLKConfig+0x11e>
        while (READ_BIT(RCC->BDCR, RCC_BDCR_LSERDY) == 0U)
 80025f4:	4b0d      	ldr	r3, [pc, #52]	; (800262c <HAL_RCCEx_PeriphCLKConfig+0x14c>)
 80025f6:	6ddb      	ldr	r3, [r3, #92]	; 0x5c
 80025f8:	2202      	movs	r2, #2
 80025fa:	4013      	ands	r3, r2
 80025fc:	d0ed      	beq.n	80025da <HAL_RCCEx_PeriphCLKConfig+0xfa>
          }
        }
      }

      if (ret == HAL_OK)
 80025fe:	2313      	movs	r3, #19
 8002600:	18fb      	adds	r3, r7, r3
 8002602:	781b      	ldrb	r3, [r3, #0]
 8002604:	2b00      	cmp	r3, #0
 8002606:	d10a      	bne.n	800261e <HAL_RCCEx_PeriphCLKConfig+0x13e>
      {
        /* Apply new RTC clock source selection */
        __HAL_RCC_RTC_CONFIG(PeriphClkInit->RTCClockSelection);
 8002608:	4b08      	ldr	r3, [pc, #32]	; (800262c <HAL_RCCEx_PeriphCLKConfig+0x14c>)
 800260a:	6ddb      	ldr	r3, [r3, #92]	; 0x5c
 800260c:	4a09      	ldr	r2, [pc, #36]	; (8002634 <HAL_RCCEx_PeriphCLKConfig+0x154>)
 800260e:	4013      	ands	r3, r2
 8002610:	0019      	movs	r1, r3
 8002612:	687b      	ldr	r3, [r7, #4]
 8002614:	6c1a      	ldr	r2, [r3, #64]	; 0x40
 8002616:	4b05      	ldr	r3, [pc, #20]	; (800262c <HAL_RCCEx_PeriphCLKConfig+0x14c>)
 8002618:	430a      	orrs	r2, r1
 800261a:	65da      	str	r2, [r3, #92]	; 0x5c
 800261c:	e016      	b.n	800264c <HAL_RCCEx_PeriphCLKConfig+0x16c>
      }
      else
      {
        /* set overall return value */
        status = ret;
 800261e:	2312      	movs	r3, #18
 8002620:	18fb      	adds	r3, r7, r3
 8002622:	2213      	movs	r2, #19
 8002624:	18ba      	adds	r2, r7, r2
 8002626:	7812      	ldrb	r2, [r2, #0]
 8002628:	701a      	strb	r2, [r3, #0]
 800262a:	e00f      	b.n	800264c <HAL_RCCEx_PeriphCLKConfig+0x16c>
 800262c:	40021000 	.word	0x40021000
 8002630:	40007000 	.word	0x40007000
 8002634:	fffffcff 	.word	0xfffffcff
 8002638:	fffeffff 	.word	0xfffeffff
 800263c:	00001388 	.word	0x00001388
      }
    }
    else
    {
      /* set overall return value */
      status = ret;
 8002640:	2312      	movs	r3, #18
 8002642:	18fb      	adds	r3, r7, r3
 8002644:	2213      	movs	r2, #19
 8002646:	18ba      	adds	r2, r7, r2
 8002648:	7812      	ldrb	r2, [r2, #0]
 800264a:	701a      	strb	r2, [r3, #0]
    }

    /* Restore clock configuration if changed */
    if (pwrclkchanged == SET)
 800264c:	2311      	movs	r3, #17
 800264e:	18fb      	adds	r3, r7, r3
 8002650:	781b      	ldrb	r3, [r3, #0]
 8002652:	2b01      	cmp	r3, #1
 8002654:	d105      	bne.n	8002662 <HAL_RCCEx_PeriphCLKConfig+0x182>
    {
      __HAL_RCC_PWR_CLK_DISABLE();
 8002656:	4bb6      	ldr	r3, [pc, #728]	; (8002930 <HAL_RCCEx_PeriphCLKConfig+0x450>)
 8002658:	6bda      	ldr	r2, [r3, #60]	; 0x3c
 800265a:	4bb5      	ldr	r3, [pc, #724]	; (8002930 <HAL_RCCEx_PeriphCLKConfig+0x450>)
 800265c:	49b5      	ldr	r1, [pc, #724]	; (8002934 <HAL_RCCEx_PeriphCLKConfig+0x454>)
 800265e:	400a      	ands	r2, r1
 8002660:	63da      	str	r2, [r3, #60]	; 0x3c
    }
  }

  /*-------------------------- USART1 clock source configuration -------------------*/
  if (((PeriphClkInit->PeriphClockSelection) & RCC_PERIPHCLK_USART1) == RCC_PERIPHCLK_USART1)
 8002662:	687b      	ldr	r3, [r7, #4]
 8002664:	681b      	ldr	r3, [r3, #0]
 8002666:	2201      	movs	r2, #1
 8002668:	4013      	ands	r3, r2
 800266a:	d009      	beq.n	8002680 <HAL_RCCEx_PeriphCLKConfig+0x1a0>
  {
    /* Check the parameters */
    assert_param(IS_RCC_USART1CLKSOURCE(PeriphClkInit->Usart1ClockSelection));

    /* Configure the USART1 clock source */
    __HAL_RCC_USART1_CONFIG(PeriphClkInit->Usart1ClockSelection);
 800266c:	4bb0      	ldr	r3, [pc, #704]	; (8002930 <HAL_RCCEx_PeriphCLKConfig+0x450>)
 800266e:	6d5b      	ldr	r3, [r3, #84]	; 0x54
 8002670:	2203      	movs	r2, #3
 8002672:	4393      	bics	r3, r2
 8002674:	0019      	movs	r1, r3
 8002676:	687b      	ldr	r3, [r7, #4]
 8002678:	685a      	ldr	r2, [r3, #4]
 800267a:	4bad      	ldr	r3, [pc, #692]	; (8002930 <HAL_RCCEx_PeriphCLKConfig+0x450>)
 800267c:	430a      	orrs	r2, r1
 800267e:	655a      	str	r2, [r3, #84]	; 0x54
  }

#if defined(RCC_CCIPR_USART2SEL)
  /*-------------------------- USART2 clock source configuration -------------------*/
  if (((PeriphClkInit->PeriphClockSelection) & RCC_PERIPHCLK_USART2) == RCC_PERIPHCLK_USART2)
 8002680:	687b      	ldr	r3, [r7, #4]
 8002682:	681b      	ldr	r3, [r3, #0]
 8002684:	2202      	movs	r2, #2
 8002686:	4013      	ands	r3, r2
 8002688:	d009      	beq.n	800269e <HAL_RCCEx_PeriphCLKConfig+0x1be>
  {
    /* Check the parameters */
    assert_param(IS_RCC_USART2CLKSOURCE(PeriphClkInit->Usart2ClockSelection));

    /* Configure the USART2 clock source */
    __HAL_RCC_USART2_CONFIG(PeriphClkInit->Usart2ClockSelection);
 800268a:	4ba9      	ldr	r3, [pc, #676]	; (8002930 <HAL_RCCEx_PeriphCLKConfig+0x450>)
 800268c:	6d5b      	ldr	r3, [r3, #84]	; 0x54
 800268e:	220c      	movs	r2, #12
 8002690:	4393      	bics	r3, r2
 8002692:	0019      	movs	r1, r3
 8002694:	687b      	ldr	r3, [r7, #4]
 8002696:	689a      	ldr	r2, [r3, #8]
 8002698:	4ba5      	ldr	r3, [pc, #660]	; (8002930 <HAL_RCCEx_PeriphCLKConfig+0x450>)
 800269a:	430a      	orrs	r2, r1
 800269c:	655a      	str	r2, [r3, #84]	; 0x54
  }
#endif /* RCC_CCIPR_USART2SEL */

#if defined(RCC_CCIPR_USART3SEL)
  /*-------------------------- USART3 clock source configuration -------------------*/
  if (((PeriphClkInit->PeriphClockSelection) & RCC_PERIPHCLK_USART3) == RCC_PERIPHCLK_USART3)
 800269e:	687b      	ldr	r3, [r7, #4]
 80026a0:	681b      	ldr	r3, [r3, #0]
 80026a2:	2204      	movs	r2, #4
 80026a4:	4013      	ands	r3, r2
 80026a6:	d009      	beq.n	80026bc <HAL_RCCEx_PeriphCLKConfig+0x1dc>
  {
    /* Check the parameters */
    assert_param(IS_RCC_USART3CLKSOURCE(PeriphClkInit->Usart3ClockSelection));

    /* Configure the USART3 clock source */
    __HAL_RCC_USART3_CONFIG(PeriphClkInit->Usart3ClockSelection);
 80026a8:	4ba1      	ldr	r3, [pc, #644]	; (8002930 <HAL_RCCEx_PeriphCLKConfig+0x450>)
 80026aa:	6d5b      	ldr	r3, [r3, #84]	; 0x54
 80026ac:	2230      	movs	r2, #48	; 0x30
 80026ae:	4393      	bics	r3, r2
 80026b0:	0019      	movs	r1, r3
 80026b2:	687b      	ldr	r3, [r7, #4]
 80026b4:	68da      	ldr	r2, [r3, #12]
 80026b6:	4b9e      	ldr	r3, [pc, #632]	; (8002930 <HAL_RCCEx_PeriphCLKConfig+0x450>)
 80026b8:	430a      	orrs	r2, r1
 80026ba:	655a      	str	r2, [r3, #84]	; 0x54
  }
#endif /* RCC_CCIPR_USART3SEL */

#if defined(LPUART1)
  /*-------------------------- LPUART1 clock source configuration ------------------*/
  if (((PeriphClkInit->PeriphClockSelection) & RCC_PERIPHCLK_LPUART1) == RCC_PERIPHCLK_LPUART1)
 80026bc:	687b      	ldr	r3, [r7, #4]
 80026be:	681b      	ldr	r3, [r3, #0]
 80026c0:	2210      	movs	r2, #16
 80026c2:	4013      	ands	r3, r2
 80026c4:	d009      	beq.n	80026da <HAL_RCCEx_PeriphCLKConfig+0x1fa>
  {
    /* Check the parameters */
    assert_param(IS_RCC_LPUART1CLKSOURCE(PeriphClkInit->Lpuart1ClockSelection));

    /* Configure the LPUART1 clock source */
    __HAL_RCC_LPUART1_CONFIG(PeriphClkInit->Lpuart1ClockSelection);
 80026c6:	4b9a      	ldr	r3, [pc, #616]	; (8002930 <HAL_RCCEx_PeriphCLKConfig+0x450>)
 80026c8:	6d5b      	ldr	r3, [r3, #84]	; 0x54
 80026ca:	4a9b      	ldr	r2, [pc, #620]	; (8002938 <HAL_RCCEx_PeriphCLKConfig+0x458>)
 80026cc:	4013      	ands	r3, r2
 80026ce:	0019      	movs	r1, r3
 80026d0:	687b      	ldr	r3, [r7, #4]
 80026d2:	691a      	ldr	r2, [r3, #16]
 80026d4:	4b96      	ldr	r3, [pc, #600]	; (8002930 <HAL_RCCEx_PeriphCLKConfig+0x450>)
 80026d6:	430a      	orrs	r2, r1
 80026d8:	655a      	str	r2, [r3, #84]	; 0x54
  }
#endif /* LPUART1 */

#if defined(LPUART2)
  /*-------------------------- LPUART2 clock source configuration ------------------*/
  if (((PeriphClkInit->PeriphClockSelection) & RCC_PERIPHCLK_LPUART2) == RCC_PERIPHCLK_LPUART2)
 80026da:	687b      	ldr	r3, [r7, #4]
 80026dc:	681a      	ldr	r2, [r3, #0]
 80026de:	2380      	movs	r3, #128	; 0x80
 80026e0:	015b      	lsls	r3, r3, #5
 80026e2:	4013      	ands	r3, r2
 80026e4:	d009      	beq.n	80026fa <HAL_RCCEx_PeriphCLKConfig+0x21a>
  {
    /* Check the parameters */
    assert_param(IS_RCC_LPUART2CLKSOURCE(PeriphClkInit->Lpuart2ClockSelection));

    /* Configure the LPUART clock source */
    __HAL_RCC_LPUART2_CONFIG(PeriphClkInit->Lpuart2ClockSelection);
 80026e6:	4b92      	ldr	r3, [pc, #584]	; (8002930 <HAL_RCCEx_PeriphCLKConfig+0x450>)
 80026e8:	6d5b      	ldr	r3, [r3, #84]	; 0x54
 80026ea:	4a94      	ldr	r2, [pc, #592]	; (800293c <HAL_RCCEx_PeriphCLKConfig+0x45c>)
 80026ec:	4013      	ands	r3, r2
 80026ee:	0019      	movs	r1, r3
 80026f0:	687b      	ldr	r3, [r7, #4]
 80026f2:	695a      	ldr	r2, [r3, #20]
 80026f4:	4b8e      	ldr	r3, [pc, #568]	; (8002930 <HAL_RCCEx_PeriphCLKConfig+0x450>)
 80026f6:	430a      	orrs	r2, r1
 80026f8:	655a      	str	r2, [r3, #84]	; 0x54
  }
#endif /* LPUART2 */

#if defined(RCC_CCIPR_LPTIM1SEL)
  /*-------------------------- LPTIM1 clock source configuration -------------------*/
  if (((PeriphClkInit->PeriphClockSelection) & RCC_PERIPHCLK_LPTIM1) == (RCC_PERIPHCLK_LPTIM1))
 80026fa:	687b      	ldr	r3, [r7, #4]
 80026fc:	681a      	ldr	r2, [r3, #0]
 80026fe:	2380      	movs	r3, #128	; 0x80
 8002700:	009b      	lsls	r3, r3, #2
 8002702:	4013      	ands	r3, r2
 8002704:	d009      	beq.n	800271a <HAL_RCCEx_PeriphCLKConfig+0x23a>
  {
    assert_param(IS_RCC_LPTIM1CLKSOURCE(PeriphClkInit->Lptim1ClockSelection));
    __HAL_RCC_LPTIM1_CONFIG(PeriphClkInit->Lptim1ClockSelection);
 8002706:	4b8a      	ldr	r3, [pc, #552]	; (8002930 <HAL_RCCEx_PeriphCLKConfig+0x450>)
 8002708:	6d5b      	ldr	r3, [r3, #84]	; 0x54
 800270a:	4a8d      	ldr	r2, [pc, #564]	; (8002940 <HAL_RCCEx_PeriphCLKConfig+0x460>)
 800270c:	4013      	ands	r3, r2
 800270e:	0019      	movs	r1, r3
 8002710:	687b      	ldr	r3, [r7, #4]
 8002712:	6a9a      	ldr	r2, [r3, #40]	; 0x28
 8002714:	4b86      	ldr	r3, [pc, #536]	; (8002930 <HAL_RCCEx_PeriphCLKConfig+0x450>)
 8002716:	430a      	orrs	r2, r1
 8002718:	655a      	str	r2, [r3, #84]	; 0x54
  }
#endif /* RCC_CCIPR_LPTIM1SEL */

#if defined(RCC_CCIPR_LPTIM2SEL)
  /*-------------------------- LPTIM2 clock source configuration -------------------*/
  if (((PeriphClkInit->PeriphClockSelection) & RCC_PERIPHCLK_LPTIM2) == (RCC_PERIPHCLK_LPTIM2))
 800271a:	687b      	ldr	r3, [r7, #4]
 800271c:	681a      	ldr	r2, [r3, #0]
 800271e:	2380      	movs	r3, #128	; 0x80
 8002720:	00db      	lsls	r3, r3, #3
 8002722:	4013      	ands	r3, r2
 8002724:	d009      	beq.n	800273a <HAL_RCCEx_PeriphCLKConfig+0x25a>
  {
    assert_param(IS_RCC_LPTIM2CLKSOURCE(PeriphClkInit->Lptim2ClockSelection));
    __HAL_RCC_LPTIM2_CONFIG(PeriphClkInit->Lptim2ClockSelection);
 8002726:	4b82      	ldr	r3, [pc, #520]	; (8002930 <HAL_RCCEx_PeriphCLKConfig+0x450>)
 8002728:	6d5b      	ldr	r3, [r3, #84]	; 0x54
 800272a:	4a86      	ldr	r2, [pc, #536]	; (8002944 <HAL_RCCEx_PeriphCLKConfig+0x464>)
 800272c:	4013      	ands	r3, r2
 800272e:	0019      	movs	r1, r3
 8002730:	687b      	ldr	r3, [r7, #4]
 8002732:	6ada      	ldr	r2, [r3, #44]	; 0x2c
 8002734:	4b7e      	ldr	r3, [pc, #504]	; (8002930 <HAL_RCCEx_PeriphCLKConfig+0x450>)
 8002736:	430a      	orrs	r2, r1
 8002738:	655a      	str	r2, [r3, #84]	; 0x54
  }
#endif /* RCC_CCIPR_LPTIM2SEL */

  /*-------------------------- I2C1 clock source configuration ---------------------*/
  if (((PeriphClkInit->PeriphClockSelection) & RCC_PERIPHCLK_I2C1) == RCC_PERIPHCLK_I2C1)
 800273a:	687b      	ldr	r3, [r7, #4]
 800273c:	681b      	ldr	r3, [r3, #0]
 800273e:	2220      	movs	r2, #32
 8002740:	4013      	ands	r3, r2
 8002742:	d009      	beq.n	8002758 <HAL_RCCEx_PeriphCLKConfig+0x278>
  {
    /* Check the parameters */
    assert_param(IS_RCC_I2C1CLKSOURCE(PeriphClkInit->I2c1ClockSelection));

    /* Configure the I2C1 clock source */
    __HAL_RCC_I2C1_CONFIG(PeriphClkInit->I2c1ClockSelection);
 8002744:	4b7a      	ldr	r3, [pc, #488]	; (8002930 <HAL_RCCEx_PeriphCLKConfig+0x450>)
 8002746:	6d5b      	ldr	r3, [r3, #84]	; 0x54
 8002748:	4a7f      	ldr	r2, [pc, #508]	; (8002948 <HAL_RCCEx_PeriphCLKConfig+0x468>)
 800274a:	4013      	ands	r3, r2
 800274c:	0019      	movs	r1, r3
 800274e:	687b      	ldr	r3, [r7, #4]
 8002750:	699a      	ldr	r2, [r3, #24]
 8002752:	4b77      	ldr	r3, [pc, #476]	; (8002930 <HAL_RCCEx_PeriphCLKConfig+0x450>)
 8002754:	430a      	orrs	r2, r1
 8002756:	655a      	str	r2, [r3, #84]	; 0x54
  }

#if defined(RCC_CCIPR_I2C2SEL)
  /*-------------------------- I2C2 clock source configuration ---------------------*/
  if (((PeriphClkInit->PeriphClockSelection) & RCC_PERIPHCLK_I2C2) == RCC_PERIPHCLK_I2C2)
 8002758:	687b      	ldr	r3, [r7, #4]
 800275a:	681b      	ldr	r3, [r3, #0]
 800275c:	2240      	movs	r2, #64	; 0x40
 800275e:	4013      	ands	r3, r2
 8002760:	d009      	beq.n	8002776 <HAL_RCCEx_PeriphCLKConfig+0x296>
  {
    /* Check the parameters */
    assert_param(IS_RCC_I2C2CLKSOURCE(PeriphClkInit->I2c2ClockSelection));

    /* Configure the I2C2 clock source */
    __HAL_RCC_I2C2_CONFIG(PeriphClkInit->I2c2ClockSelection);
 8002762:	4b73      	ldr	r3, [pc, #460]	; (8002930 <HAL_RCCEx_PeriphCLKConfig+0x450>)
 8002764:	6d5b      	ldr	r3, [r3, #84]	; 0x54
 8002766:	4a79      	ldr	r2, [pc, #484]	; (800294c <HAL_RCCEx_PeriphCLKConfig+0x46c>)
 8002768:	4013      	ands	r3, r2
 800276a:	0019      	movs	r1, r3
 800276c:	687b      	ldr	r3, [r7, #4]
 800276e:	69da      	ldr	r2, [r3, #28]
 8002770:	4b6f      	ldr	r3, [pc, #444]	; (8002930 <HAL_RCCEx_PeriphCLKConfig+0x450>)
 8002772:	430a      	orrs	r2, r1
 8002774:	655a      	str	r2, [r3, #84]	; 0x54
      __HAL_RCC_PLLCLKOUT_ENABLE(RCC_PLLQCLK);
    }
  }
#endif /* RNG */
  /*-------------------------- ADC clock source configuration ----------------------*/
  if (((PeriphClkInit->PeriphClockSelection) & RCC_PERIPHCLK_ADC) == RCC_PERIPHCLK_ADC)
 8002776:	687b      	ldr	r3, [r7, #4]
 8002778:	681a      	ldr	r2, [r3, #0]
 800277a:	2380      	movs	r3, #128	; 0x80
 800277c:	01db      	lsls	r3, r3, #7
 800277e:	4013      	ands	r3, r2
 8002780:	d015      	beq.n	80027ae <HAL_RCCEx_PeriphCLKConfig+0x2ce>
  {
    /* Check the parameters */
    assert_param(IS_RCC_ADCCLKSOURCE(PeriphClkInit->AdcClockSelection));

    /* Configure the ADC interface clock source */
    __HAL_RCC_ADC_CONFIG(PeriphClkInit->AdcClockSelection);
 8002782:	4b6b      	ldr	r3, [pc, #428]	; (8002930 <HAL_RCCEx_PeriphCLKConfig+0x450>)
 8002784:	6d5b      	ldr	r3, [r3, #84]	; 0x54
 8002786:	009b      	lsls	r3, r3, #2
 8002788:	0899      	lsrs	r1, r3, #2
 800278a:	687b      	ldr	r3, [r7, #4]
 800278c:	6b1a      	ldr	r2, [r3, #48]	; 0x30
 800278e:	4b68      	ldr	r3, [pc, #416]	; (8002930 <HAL_RCCEx_PeriphCLKConfig+0x450>)
 8002790:	430a      	orrs	r2, r1
 8002792:	655a      	str	r2, [r3, #84]	; 0x54

    if (PeriphClkInit->AdcClockSelection == RCC_ADCCLKSOURCE_PLLADC)
 8002794:	687b      	ldr	r3, [r7, #4]
 8002796:	6b1a      	ldr	r2, [r3, #48]	; 0x30
 8002798:	2380      	movs	r3, #128	; 0x80
 800279a:	05db      	lsls	r3, r3, #23
 800279c:	429a      	cmp	r2, r3
 800279e:	d106      	bne.n	80027ae <HAL_RCCEx_PeriphCLKConfig+0x2ce>
    {
      /* Enable PLLPCLK output */
      __HAL_RCC_PLLCLKOUT_ENABLE(RCC_PLLPCLK);
 80027a0:	4b63      	ldr	r3, [pc, #396]	; (8002930 <HAL_RCCEx_PeriphCLKConfig+0x450>)
 80027a2:	68da      	ldr	r2, [r3, #12]
 80027a4:	4b62      	ldr	r3, [pc, #392]	; (8002930 <HAL_RCCEx_PeriphCLKConfig+0x450>)
 80027a6:	2180      	movs	r1, #128	; 0x80
 80027a8:	0249      	lsls	r1, r1, #9
 80027aa:	430a      	orrs	r2, r1
 80027ac:	60da      	str	r2, [r3, #12]
    }
  }

#if defined(CEC)
  /*-------------------------- CEC clock source configuration ---------------------*/
  if (((PeriphClkInit->PeriphClockSelection) & RCC_PERIPHCLK_CEC) == RCC_PERIPHCLK_CEC)
 80027ae:	687b      	ldr	r3, [r7, #4]
 80027b0:	681a      	ldr	r2, [r3, #0]
 80027b2:	2380      	movs	r3, #128	; 0x80
 80027b4:	031b      	lsls	r3, r3, #12
 80027b6:	4013      	ands	r3, r2
 80027b8:	d009      	beq.n	80027ce <HAL_RCCEx_PeriphCLKConfig+0x2ee>
  {
    /* Check the parameters */
    assert_param(IS_RCC_CECCLKSOURCE(PeriphClkInit->CecClockSelection));

    /* Configure the CEC clock source */
    __HAL_RCC_CEC_CONFIG(PeriphClkInit->CecClockSelection);
 80027ba:	4b5d      	ldr	r3, [pc, #372]	; (8002930 <HAL_RCCEx_PeriphCLKConfig+0x450>)
 80027bc:	6d5b      	ldr	r3, [r3, #84]	; 0x54
 80027be:	2240      	movs	r2, #64	; 0x40
 80027c0:	4393      	bics	r3, r2
 80027c2:	0019      	movs	r1, r3
 80027c4:	687b      	ldr	r3, [r7, #4]
 80027c6:	6b5a      	ldr	r2, [r3, #52]	; 0x34
 80027c8:	4b59      	ldr	r3, [pc, #356]	; (8002930 <HAL_RCCEx_PeriphCLKConfig+0x450>)
 80027ca:	430a      	orrs	r2, r1
 80027cc:	655a      	str	r2, [r3, #84]	; 0x54
  }
#endif /* CEC */

#if defined(RCC_CCIPR_TIM1SEL)
  /*-------------------------- TIM1 clock source configuration ---------------------*/
  if (((PeriphClkInit->PeriphClockSelection) & RCC_PERIPHCLK_TIM1) == RCC_PERIPHCLK_TIM1)
 80027ce:	687b      	ldr	r3, [r7, #4]
 80027d0:	681a      	ldr	r2, [r3, #0]
 80027d2:	2380      	movs	r3, #128	; 0x80
 80027d4:	039b      	lsls	r3, r3, #14
 80027d6:	4013      	ands	r3, r2
 80027d8:	d016      	beq.n	8002808 <HAL_RCCEx_PeriphCLKConfig+0x328>
  {
    /* Check the parameters */
    assert_param(IS_RCC_TIM1CLKSOURCE(PeriphClkInit->Tim1ClockSelection));

    /* Configure the TIM1 clock source */
    __HAL_RCC_TIM1_CONFIG(PeriphClkInit->Tim1ClockSelection);
 80027da:	4b55      	ldr	r3, [pc, #340]	; (8002930 <HAL_RCCEx_PeriphCLKConfig+0x450>)
 80027dc:	6d5b      	ldr	r3, [r3, #84]	; 0x54
 80027de:	4a5c      	ldr	r2, [pc, #368]	; (8002950 <HAL_RCCEx_PeriphCLKConfig+0x470>)
 80027e0:	4013      	ands	r3, r2
 80027e2:	0019      	movs	r1, r3
 80027e4:	687b      	ldr	r3, [r7, #4]
 80027e6:	6b9a      	ldr	r2, [r3, #56]	; 0x38
 80027e8:	4b51      	ldr	r3, [pc, #324]	; (8002930 <HAL_RCCEx_PeriphCLKConfig+0x450>)
 80027ea:	430a      	orrs	r2, r1
 80027ec:	655a      	str	r2, [r3, #84]	; 0x54

    if (PeriphClkInit->Tim1ClockSelection == RCC_TIM1CLKSOURCE_PLL)
 80027ee:	687b      	ldr	r3, [r7, #4]
 80027f0:	6b9a      	ldr	r2, [r3, #56]	; 0x38
 80027f2:	2380      	movs	r3, #128	; 0x80
 80027f4:	03db      	lsls	r3, r3, #15
 80027f6:	429a      	cmp	r2, r3
 80027f8:	d106      	bne.n	8002808 <HAL_RCCEx_PeriphCLKConfig+0x328>
    {
      /* Enable PLLQCLK output */
      __HAL_RCC_PLLCLKOUT_ENABLE(RCC_PLLQCLK);
 80027fa:	4b4d      	ldr	r3, [pc, #308]	; (8002930 <HAL_RCCEx_PeriphCLKConfig+0x450>)
 80027fc:	68da      	ldr	r2, [r3, #12]
 80027fe:	4b4c      	ldr	r3, [pc, #304]	; (8002930 <HAL_RCCEx_PeriphCLKConfig+0x450>)
 8002800:	2180      	movs	r1, #128	; 0x80
 8002802:	0449      	lsls	r1, r1, #17
 8002804:	430a      	orrs	r2, r1
 8002806:	60da      	str	r2, [r3, #12]
  }
#endif /* RCC_CCIPR_TIM1SEL */

#if defined(RCC_CCIPR_TIM15SEL)
  /*-------------------------- TIM15 clock source configuration ---------------------*/
  if (((PeriphClkInit->PeriphClockSelection) & RCC_PERIPHCLK_TIM15) == RCC_PERIPHCLK_TIM15)
 8002808:	687b      	ldr	r3, [r7, #4]
 800280a:	681a      	ldr	r2, [r3, #0]
 800280c:	2380      	movs	r3, #128	; 0x80
 800280e:	03db      	lsls	r3, r3, #15
 8002810:	4013      	ands	r3, r2
 8002812:	d016      	beq.n	8002842 <HAL_RCCEx_PeriphCLKConfig+0x362>
  {
    /* Check the parameters */
    assert_param(IS_RCC_TIM15CLKSOURCE(PeriphClkInit->Tim15ClockSelection));

    /* Configure the TIM15 clock source */
    __HAL_RCC_TIM15_CONFIG(PeriphClkInit->Tim15ClockSelection);
 8002814:	4b46      	ldr	r3, [pc, #280]	; (8002930 <HAL_RCCEx_PeriphCLKConfig+0x450>)
 8002816:	6d5b      	ldr	r3, [r3, #84]	; 0x54
 8002818:	4a4e      	ldr	r2, [pc, #312]	; (8002954 <HAL_RCCEx_PeriphCLKConfig+0x474>)
 800281a:	4013      	ands	r3, r2
 800281c:	0019      	movs	r1, r3
 800281e:	687b      	ldr	r3, [r7, #4]
 8002820:	6bda      	ldr	r2, [r3, #60]	; 0x3c
 8002822:	4b43      	ldr	r3, [pc, #268]	; (8002930 <HAL_RCCEx_PeriphCLKConfig+0x450>)
 8002824:	430a      	orrs	r2, r1
 8002826:	655a      	str	r2, [r3, #84]	; 0x54

    if (PeriphClkInit->Tim15ClockSelection == RCC_TIM15CLKSOURCE_PLL)
 8002828:	687b      	ldr	r3, [r7, #4]
 800282a:	6bda      	ldr	r2, [r3, #60]	; 0x3c
 800282c:	2380      	movs	r3, #128	; 0x80
 800282e:	045b      	lsls	r3, r3, #17
 8002830:	429a      	cmp	r2, r3
 8002832:	d106      	bne.n	8002842 <HAL_RCCEx_PeriphCLKConfig+0x362>
    {
      /* Enable PLLQCLK output */
      __HAL_RCC_PLLCLKOUT_ENABLE(RCC_PLLQCLK);
 8002834:	4b3e      	ldr	r3, [pc, #248]	; (8002930 <HAL_RCCEx_PeriphCLKConfig+0x450>)
 8002836:	68da      	ldr	r2, [r3, #12]
 8002838:	4b3d      	ldr	r3, [pc, #244]	; (8002930 <HAL_RCCEx_PeriphCLKConfig+0x450>)
 800283a:	2180      	movs	r1, #128	; 0x80
 800283c:	0449      	lsls	r1, r1, #17
 800283e:	430a      	orrs	r2, r1
 8002840:	60da      	str	r2, [r3, #12]
    }
  }
#endif /* RCC_CCIPR_TIM15SEL */

  /*-------------------------- I2S1 clock source configuration ---------------------*/
  if (((PeriphClkInit->PeriphClockSelection) & RCC_PERIPHCLK_I2S1) == RCC_PERIPHCLK_I2S1)
 8002842:	687b      	ldr	r3, [r7, #4]
 8002844:	681a      	ldr	r2, [r3, #0]
 8002846:	2380      	movs	r3, #128	; 0x80
 8002848:	011b      	lsls	r3, r3, #4
 800284a:	4013      	ands	r3, r2
 800284c:	d014      	beq.n	8002878 <HAL_RCCEx_PeriphCLKConfig+0x398>
  {
    /* Check the parameters */
    assert_param(IS_RCC_I2S1CLKSOURCE(PeriphClkInit->I2s1ClockSelection));

    /* Configure the I2S1 clock source */
    __HAL_RCC_I2S1_CONFIG(PeriphClkInit->I2s1ClockSelection);
 800284e:	4b38      	ldr	r3, [pc, #224]	; (8002930 <HAL_RCCEx_PeriphCLKConfig+0x450>)
 8002850:	6d9b      	ldr	r3, [r3, #88]	; 0x58
 8002852:	2203      	movs	r2, #3
 8002854:	4393      	bics	r3, r2
 8002856:	0019      	movs	r1, r3
 8002858:	687b      	ldr	r3, [r7, #4]
 800285a:	6a1a      	ldr	r2, [r3, #32]
 800285c:	4b34      	ldr	r3, [pc, #208]	; (8002930 <HAL_RCCEx_PeriphCLKConfig+0x450>)
 800285e:	430a      	orrs	r2, r1
 8002860:	659a      	str	r2, [r3, #88]	; 0x58

    if (PeriphClkInit->I2s1ClockSelection == RCC_I2S1CLKSOURCE_PLL)
 8002862:	687b      	ldr	r3, [r7, #4]
 8002864:	6a1b      	ldr	r3, [r3, #32]
 8002866:	2b01      	cmp	r3, #1
 8002868:	d106      	bne.n	8002878 <HAL_RCCEx_PeriphCLKConfig+0x398>
    {
      /* Enable PLLPCLK output */
      __HAL_RCC_PLLCLKOUT_ENABLE(RCC_PLLPCLK);
 800286a:	4b31      	ldr	r3, [pc, #196]	; (8002930 <HAL_RCCEx_PeriphCLKConfig+0x450>)
 800286c:	68da      	ldr	r2, [r3, #12]
 800286e:	4b30      	ldr	r3, [pc, #192]	; (8002930 <HAL_RCCEx_PeriphCLKConfig+0x450>)
 8002870:	2180      	movs	r1, #128	; 0x80
 8002872:	0249      	lsls	r1, r1, #9
 8002874:	430a      	orrs	r2, r1
 8002876:	60da      	str	r2, [r3, #12]
    }
  }

#if defined(RCC_CCIPR2_I2S2SEL)
  /*-------------------------- I2S2 clock source configuration ---------------------*/
  if (((PeriphClkInit->PeriphClockSelection) & RCC_PERIPHCLK_I2S2) == RCC_PERIPHCLK_I2S2)
 8002878:	687b      	ldr	r3, [r7, #4]
 800287a:	681a      	ldr	r2, [r3, #0]
 800287c:	2380      	movs	r3, #128	; 0x80
 800287e:	019b      	lsls	r3, r3, #6
 8002880:	4013      	ands	r3, r2
 8002882:	d014      	beq.n	80028ae <HAL_RCCEx_PeriphCLKConfig+0x3ce>
  {
    /* Check the parameters */
    assert_param(IS_RCC_I2S2CLKSOURCE(PeriphClkInit->I2s2ClockSelection));

    /* Configure the I2S2 clock source */
    __HAL_RCC_I2S2_CONFIG(PeriphClkInit->I2s2ClockSelection);
 8002884:	4b2a      	ldr	r3, [pc, #168]	; (8002930 <HAL_RCCEx_PeriphCLKConfig+0x450>)
 8002886:	6d9b      	ldr	r3, [r3, #88]	; 0x58
 8002888:	220c      	movs	r2, #12
 800288a:	4393      	bics	r3, r2
 800288c:	0019      	movs	r1, r3
 800288e:	687b      	ldr	r3, [r7, #4]
 8002890:	6a5a      	ldr	r2, [r3, #36]	; 0x24
 8002892:	4b27      	ldr	r3, [pc, #156]	; (8002930 <HAL_RCCEx_PeriphCLKConfig+0x450>)
 8002894:	430a      	orrs	r2, r1
 8002896:	659a      	str	r2, [r3, #88]	; 0x58

    if (PeriphClkInit->I2s2ClockSelection == RCC_I2S2CLKSOURCE_PLL)
 8002898:	687b      	ldr	r3, [r7, #4]
 800289a:	6a5b      	ldr	r3, [r3, #36]	; 0x24
 800289c:	2b04      	cmp	r3, #4
 800289e:	d106      	bne.n	80028ae <HAL_RCCEx_PeriphCLKConfig+0x3ce>
    {
      /* Enable PLLPCLK output */
      __HAL_RCC_PLLCLKOUT_ENABLE(RCC_PLLPCLK);
 80028a0:	4b23      	ldr	r3, [pc, #140]	; (8002930 <HAL_RCCEx_PeriphCLKConfig+0x450>)
 80028a2:	68da      	ldr	r2, [r3, #12]
 80028a4:	4b22      	ldr	r3, [pc, #136]	; (8002930 <HAL_RCCEx_PeriphCLKConfig+0x450>)
 80028a6:	2180      	movs	r1, #128	; 0x80
 80028a8:	0249      	lsls	r1, r1, #9
 80028aa:	430a      	orrs	r2, r1
 80028ac:	60da      	str	r2, [r3, #12]
  }
#endif /* RCC_CCIPR2_I2S2SEL */

#if defined(STM32G0C1xx) || defined(STM32G0B1xx)  || defined(STM32G0B0xx)
  /*-------------------------- USB clock source configuration ---------------------*/
  if (((PeriphClkInit->PeriphClockSelection) & RCC_PERIPHCLK_USB) == RCC_PERIPHCLK_USB)
 80028ae:	687b      	ldr	r3, [r7, #4]
 80028b0:	681a      	ldr	r2, [r3, #0]
 80028b2:	2380      	movs	r3, #128	; 0x80
 80028b4:	045b      	lsls	r3, r3, #17
 80028b6:	4013      	ands	r3, r2
 80028b8:	d016      	beq.n	80028e8 <HAL_RCCEx_PeriphCLKConfig+0x408>
  {
    /* Check the parameters */
    assert_param(IS_RCC_USBCLKSOURCE(PeriphClkInit->UsbClockSelection));

    /* Configure the USB clock source */
    __HAL_RCC_USB_CONFIG(PeriphClkInit->UsbClockSelection);
 80028ba:	4b1d      	ldr	r3, [pc, #116]	; (8002930 <HAL_RCCEx_PeriphCLKConfig+0x450>)
 80028bc:	6d9b      	ldr	r3, [r3, #88]	; 0x58
 80028be:	4a22      	ldr	r2, [pc, #136]	; (8002948 <HAL_RCCEx_PeriphCLKConfig+0x468>)
 80028c0:	4013      	ands	r3, r2
 80028c2:	0019      	movs	r1, r3
 80028c4:	687b      	ldr	r3, [r7, #4]
 80028c6:	6c5a      	ldr	r2, [r3, #68]	; 0x44
 80028c8:	4b19      	ldr	r3, [pc, #100]	; (8002930 <HAL_RCCEx_PeriphCLKConfig+0x450>)
 80028ca:	430a      	orrs	r2, r1
 80028cc:	659a      	str	r2, [r3, #88]	; 0x58

    if (PeriphClkInit->UsbClockSelection == RCC_USBCLKSOURCE_PLL)
 80028ce:	687b      	ldr	r3, [r7, #4]
 80028d0:	6c5a      	ldr	r2, [r3, #68]	; 0x44
 80028d2:	2380      	movs	r3, #128	; 0x80
 80028d4:	019b      	lsls	r3, r3, #6
 80028d6:	429a      	cmp	r2, r3
 80028d8:	d106      	bne.n	80028e8 <HAL_RCCEx_PeriphCLKConfig+0x408>
    {
      /* Enable PLLQCLK output */
      __HAL_RCC_PLLCLKOUT_ENABLE(RCC_PLLQCLK);
 80028da:	4b15      	ldr	r3, [pc, #84]	; (8002930 <HAL_RCCEx_PeriphCLKConfig+0x450>)
 80028dc:	68da      	ldr	r2, [r3, #12]
 80028de:	4b14      	ldr	r3, [pc, #80]	; (8002930 <HAL_RCCEx_PeriphCLKConfig+0x450>)
 80028e0:	2180      	movs	r1, #128	; 0x80
 80028e2:	0449      	lsls	r1, r1, #17
 80028e4:	430a      	orrs	r2, r1
 80028e6:	60da      	str	r2, [r3, #12]
  }
#endif /* STM32G0C1xx || STM32G0B1xx || STM32G0B0xx */

#if defined(FDCAN1) || defined(FDCAN2)
  /*-------------------------- FDCAN clock source configuration ---------------------*/
  if (((PeriphClkInit->PeriphClockSelection) & RCC_PERIPHCLK_FDCAN) == RCC_PERIPHCLK_FDCAN)
 80028e8:	687b      	ldr	r3, [r7, #4]
 80028ea:	681a      	ldr	r2, [r3, #0]
 80028ec:	2380      	movs	r3, #128	; 0x80
 80028ee:	049b      	lsls	r3, r3, #18
 80028f0:	4013      	ands	r3, r2
 80028f2:	d016      	beq.n	8002922 <HAL_RCCEx_PeriphCLKConfig+0x442>
  {
    /* Check the parameters */
    assert_param(IS_RCC_FDCANCLKSOURCE(PeriphClkInit->FdcanClockSelection));

    /* Configure the FDCAN clock source */
    __HAL_RCC_FDCAN_CONFIG(PeriphClkInit->FdcanClockSelection);
 80028f4:	4b0e      	ldr	r3, [pc, #56]	; (8002930 <HAL_RCCEx_PeriphCLKConfig+0x450>)
 80028f6:	6d9b      	ldr	r3, [r3, #88]	; 0x58
 80028f8:	4a10      	ldr	r2, [pc, #64]	; (800293c <HAL_RCCEx_PeriphCLKConfig+0x45c>)
 80028fa:	4013      	ands	r3, r2
 80028fc:	0019      	movs	r1, r3
 80028fe:	687b      	ldr	r3, [r7, #4]
 8002900:	6c9a      	ldr	r2, [r3, #72]	; 0x48
 8002902:	4b0b      	ldr	r3, [pc, #44]	; (8002930 <HAL_RCCEx_PeriphCLKConfig+0x450>)
 8002904:	430a      	orrs	r2, r1
 8002906:	659a      	str	r2, [r3, #88]	; 0x58

    if (PeriphClkInit->FdcanClockSelection == RCC_FDCANCLKSOURCE_PLL)
 8002908:	687b      	ldr	r3, [r7, #4]
 800290a:	6c9a      	ldr	r2, [r3, #72]	; 0x48
 800290c:	2380      	movs	r3, #128	; 0x80
 800290e:	005b      	lsls	r3, r3, #1
 8002910:	429a      	cmp	r2, r3
 8002912:	d106      	bne.n	8002922 <HAL_RCCEx_PeriphCLKConfig+0x442>
    {
      /* Enable PLLQCLK output */
      __HAL_RCC_PLLCLKOUT_ENABLE(RCC_PLLQCLK);
 8002914:	4b06      	ldr	r3, [pc, #24]	; (8002930 <HAL_RCCEx_PeriphCLKConfig+0x450>)
 8002916:	68da      	ldr	r2, [r3, #12]
 8002918:	4b05      	ldr	r3, [pc, #20]	; (8002930 <HAL_RCCEx_PeriphCLKConfig+0x450>)
 800291a:	2180      	movs	r1, #128	; 0x80
 800291c:	0449      	lsls	r1, r1, #17
 800291e:	430a      	orrs	r2, r1
 8002920:	60da      	str	r2, [r3, #12]
    }
  }
#endif /* FDCAN1 || FDCAN2 */

  return status;
 8002922:	2312      	movs	r3, #18
 8002924:	18fb      	adds	r3, r7, r3
 8002926:	781b      	ldrb	r3, [r3, #0]
}
 8002928:	0018      	movs	r0, r3
 800292a:	46bd      	mov	sp, r7
 800292c:	b006      	add	sp, #24
 800292e:	bd80      	pop	{r7, pc}
 8002930:	40021000 	.word	0x40021000
 8002934:	efffffff 	.word	0xefffffff
 8002938:	fffff3ff 	.word	0xfffff3ff
 800293c:	fffffcff 	.word	0xfffffcff
 8002940:	fff3ffff 	.word	0xfff3ffff
 8002944:	ffcfffff 	.word	0xffcfffff
 8002948:	ffffcfff 	.word	0xffffcfff
 800294c:	ffff3fff 	.word	0xffff3fff
 8002950:	ffbfffff 	.word	0xffbfffff
 8002954:	feffffff 	.word	0xfeffffff

08002958 <HAL_TIM_Base_Init>:
  *         Ex: call @ref HAL_TIM_Base_DeInit() before HAL_TIM_Base_Init()
  * @param  htim TIM Base handle
  * @retval HAL status
  */
HAL_StatusTypeDef HAL_TIM_Base_Init(TIM_HandleTypeDef *htim)
{
 8002958:	b580      	push	{r7, lr}
 800295a:	b082      	sub	sp, #8
 800295c:	af00      	add	r7, sp, #0
 800295e:	6078      	str	r0, [r7, #4]
  /* Check the TIM handle allocation */
  if (htim == NULL)
 8002960:	687b      	ldr	r3, [r7, #4]
 8002962:	2b00      	cmp	r3, #0
 8002964:	d101      	bne.n	800296a <HAL_TIM_Base_Init+0x12>
  {
    return HAL_ERROR;
 8002966:	2301      	movs	r3, #1
 8002968:	e04a      	b.n	8002a00 <HAL_TIM_Base_Init+0xa8>
  assert_param(IS_TIM_INSTANCE(htim->Instance));
  assert_param(IS_TIM_COUNTER_MODE(htim->Init.CounterMode));
  assert_param(IS_TIM_CLOCKDIVISION_DIV(htim->Init.ClockDivision));
  assert_param(IS_TIM_AUTORELOAD_PRELOAD(htim->Init.AutoReloadPreload));

  if (htim->State == HAL_TIM_STATE_RESET)
 800296a:	687b      	ldr	r3, [r7, #4]
 800296c:	223d      	movs	r2, #61	; 0x3d
 800296e:	5c9b      	ldrb	r3, [r3, r2]
 8002970:	b2db      	uxtb	r3, r3
 8002972:	2b00      	cmp	r3, #0
 8002974:	d107      	bne.n	8002986 <HAL_TIM_Base_Init+0x2e>
  {
    /* Allocate lock resource and initialize it */
    htim->Lock = HAL_UNLOCKED;
 8002976:	687b      	ldr	r3, [r7, #4]
 8002978:	223c      	movs	r2, #60	; 0x3c
 800297a:	2100      	movs	r1, #0
 800297c:	5499      	strb	r1, [r3, r2]
    }
    /* Init the low level hardware : GPIO, CLOCK, NVIC */
    htim->Base_MspInitCallback(htim);
#else
    /* Init the low level hardware : GPIO, CLOCK, NVIC */
    HAL_TIM_Base_MspInit(htim);
 800297e:	687b      	ldr	r3, [r7, #4]
 8002980:	0018      	movs	r0, r3
 8002982:	f7fd fe99 	bl	80006b8 <HAL_TIM_Base_MspInit>
#endif /* USE_HAL_TIM_REGISTER_CALLBACKS */
  }

  /* Set the TIM state */
  htim->State = HAL_TIM_STATE_BUSY;
 8002986:	687b      	ldr	r3, [r7, #4]
 8002988:	223d      	movs	r2, #61	; 0x3d
 800298a:	2102      	movs	r1, #2
 800298c:	5499      	strb	r1, [r3, r2]

  /* Set the Time Base configuration */
  TIM_Base_SetConfig(htim->Instance, &htim->Init);
 800298e:	687b      	ldr	r3, [r7, #4]
 8002990:	681a      	ldr	r2, [r3, #0]
 8002992:	687b      	ldr	r3, [r7, #4]
 8002994:	3304      	adds	r3, #4
 8002996:	0019      	movs	r1, r3
 8002998:	0010      	movs	r0, r2
 800299a:	f000 fb47 	bl	800302c <TIM_Base_SetConfig>

  /* Initialize the DMA burst operation state */
  htim->DMABurstState = HAL_DMA_BURST_STATE_READY;
 800299e:	687b      	ldr	r3, [r7, #4]
 80029a0:	2248      	movs	r2, #72	; 0x48
 80029a2:	2101      	movs	r1, #1
 80029a4:	5499      	strb	r1, [r3, r2]

  /* Initialize the TIM channels state */
  TIM_CHANNEL_STATE_SET_ALL(htim, HAL_TIM_CHANNEL_STATE_READY);
 80029a6:	687b      	ldr	r3, [r7, #4]
 80029a8:	223e      	movs	r2, #62	; 0x3e
 80029aa:	2101      	movs	r1, #1
 80029ac:	5499      	strb	r1, [r3, r2]
 80029ae:	687b      	ldr	r3, [r7, #4]
 80029b0:	223f      	movs	r2, #63	; 0x3f
 80029b2:	2101      	movs	r1, #1
 80029b4:	5499      	strb	r1, [r3, r2]
 80029b6:	687b      	ldr	r3, [r7, #4]
 80029b8:	2240      	movs	r2, #64	; 0x40
 80029ba:	2101      	movs	r1, #1
 80029bc:	5499      	strb	r1, [r3, r2]
 80029be:	687b      	ldr	r3, [r7, #4]
 80029c0:	2241      	movs	r2, #65	; 0x41
 80029c2:	2101      	movs	r1, #1
 80029c4:	5499      	strb	r1, [r3, r2]
 80029c6:	687b      	ldr	r3, [r7, #4]
 80029c8:	2242      	movs	r2, #66	; 0x42
 80029ca:	2101      	movs	r1, #1
 80029cc:	5499      	strb	r1, [r3, r2]
 80029ce:	687b      	ldr	r3, [r7, #4]
 80029d0:	2243      	movs	r2, #67	; 0x43
 80029d2:	2101      	movs	r1, #1
 80029d4:	5499      	strb	r1, [r3, r2]
  TIM_CHANNEL_N_STATE_SET_ALL(htim, HAL_TIM_CHANNEL_STATE_READY);
 80029d6:	687b      	ldr	r3, [r7, #4]
 80029d8:	2244      	movs	r2, #68	; 0x44
 80029da:	2101      	movs	r1, #1
 80029dc:	5499      	strb	r1, [r3, r2]
 80029de:	687b      	ldr	r3, [r7, #4]
 80029e0:	2245      	movs	r2, #69	; 0x45
 80029e2:	2101      	movs	r1, #1
 80029e4:	5499      	strb	r1, [r3, r2]
 80029e6:	687b      	ldr	r3, [r7, #4]
 80029e8:	2246      	movs	r2, #70	; 0x46
 80029ea:	2101      	movs	r1, #1
 80029ec:	5499      	strb	r1, [r3, r2]
 80029ee:	687b      	ldr	r3, [r7, #4]
 80029f0:	2247      	movs	r2, #71	; 0x47
 80029f2:	2101      	movs	r1, #1
 80029f4:	5499      	strb	r1, [r3, r2]

  /* Initialize the TIM state*/
  htim->State = HAL_TIM_STATE_READY;
 80029f6:	687b      	ldr	r3, [r7, #4]
 80029f8:	223d      	movs	r2, #61	; 0x3d
 80029fa:	2101      	movs	r1, #1
 80029fc:	5499      	strb	r1, [r3, r2]

  return HAL_OK;
 80029fe:	2300      	movs	r3, #0
}
 8002a00:	0018      	movs	r0, r3
 8002a02:	46bd      	mov	sp, r7
 8002a04:	b002      	add	sp, #8
 8002a06:	bd80      	pop	{r7, pc}

08002a08 <HAL_TIM_PWM_Init>:
  *         Ex: call @ref HAL_TIM_PWM_DeInit() before HAL_TIM_PWM_Init()
  * @param  htim TIM PWM handle
  * @retval HAL status
  */
HAL_StatusTypeDef HAL_TIM_PWM_Init(TIM_HandleTypeDef *htim)
{
 8002a08:	b580      	push	{r7, lr}
 8002a0a:	b082      	sub	sp, #8
 8002a0c:	af00      	add	r7, sp, #0
 8002a0e:	6078      	str	r0, [r7, #4]
  /* Check the TIM handle allocation */
  if (htim == NULL)
 8002a10:	687b      	ldr	r3, [r7, #4]
 8002a12:	2b00      	cmp	r3, #0
 8002a14:	d101      	bne.n	8002a1a <HAL_TIM_PWM_Init+0x12>
  {
    return HAL_ERROR;
 8002a16:	2301      	movs	r3, #1
 8002a18:	e04a      	b.n	8002ab0 <HAL_TIM_PWM_Init+0xa8>
  assert_param(IS_TIM_INSTANCE(htim->Instance));
  assert_param(IS_TIM_COUNTER_MODE(htim->Init.CounterMode));
  assert_param(IS_TIM_CLOCKDIVISION_DIV(htim->Init.ClockDivision));
  assert_param(IS_TIM_AUTORELOAD_PRELOAD(htim->Init.AutoReloadPreload));

  if (htim->State == HAL_TIM_STATE_RESET)
 8002a1a:	687b      	ldr	r3, [r7, #4]
 8002a1c:	223d      	movs	r2, #61	; 0x3d
 8002a1e:	5c9b      	ldrb	r3, [r3, r2]
 8002a20:	b2db      	uxtb	r3, r3
 8002a22:	2b00      	cmp	r3, #0
 8002a24:	d107      	bne.n	8002a36 <HAL_TIM_PWM_Init+0x2e>
  {
    /* Allocate lock resource and initialize it */
    htim->Lock = HAL_UNLOCKED;
 8002a26:	687b      	ldr	r3, [r7, #4]
 8002a28:	223c      	movs	r2, #60	; 0x3c
 8002a2a:	2100      	movs	r1, #0
 8002a2c:	5499      	strb	r1, [r3, r2]
    }
    /* Init the low level hardware : GPIO, CLOCK, NVIC */
    htim->PWM_MspInitCallback(htim);
#else
    /* Init the low level hardware : GPIO, CLOCK, NVIC and DMA */
    HAL_TIM_PWM_MspInit(htim);
 8002a2e:	687b      	ldr	r3, [r7, #4]
 8002a30:	0018      	movs	r0, r3
 8002a32:	f000 f841 	bl	8002ab8 <HAL_TIM_PWM_MspInit>
#endif /* USE_HAL_TIM_REGISTER_CALLBACKS */
  }

  /* Set the TIM state */
  htim->State = HAL_TIM_STATE_BUSY;
 8002a36:	687b      	ldr	r3, [r7, #4]
 8002a38:	223d      	movs	r2, #61	; 0x3d
 8002a3a:	2102      	movs	r1, #2
 8002a3c:	5499      	strb	r1, [r3, r2]

  /* Init the base time for the PWM */
  TIM_Base_SetConfig(htim->Instance, &htim->Init);
 8002a3e:	687b      	ldr	r3, [r7, #4]
 8002a40:	681a      	ldr	r2, [r3, #0]
 8002a42:	687b      	ldr	r3, [r7, #4]
 8002a44:	3304      	adds	r3, #4
 8002a46:	0019      	movs	r1, r3
 8002a48:	0010      	movs	r0, r2
 8002a4a:	f000 faef 	bl	800302c <TIM_Base_SetConfig>

  /* Initialize the DMA burst operation state */
  htim->DMABurstState = HAL_DMA_BURST_STATE_READY;
 8002a4e:	687b      	ldr	r3, [r7, #4]
 8002a50:	2248      	movs	r2, #72	; 0x48
 8002a52:	2101      	movs	r1, #1
 8002a54:	5499      	strb	r1, [r3, r2]

  /* Initialize the TIM channels state */
  TIM_CHANNEL_STATE_SET_ALL(htim, HAL_TIM_CHANNEL_STATE_READY);
 8002a56:	687b      	ldr	r3, [r7, #4]
 8002a58:	223e      	movs	r2, #62	; 0x3e
 8002a5a:	2101      	movs	r1, #1
 8002a5c:	5499      	strb	r1, [r3, r2]
 8002a5e:	687b      	ldr	r3, [r7, #4]
 8002a60:	223f      	movs	r2, #63	; 0x3f
 8002a62:	2101      	movs	r1, #1
 8002a64:	5499      	strb	r1, [r3, r2]
 8002a66:	687b      	ldr	r3, [r7, #4]
 8002a68:	2240      	movs	r2, #64	; 0x40
 8002a6a:	2101      	movs	r1, #1
 8002a6c:	5499      	strb	r1, [r3, r2]
 8002a6e:	687b      	ldr	r3, [r7, #4]
 8002a70:	2241      	movs	r2, #65	; 0x41
 8002a72:	2101      	movs	r1, #1
 8002a74:	5499      	strb	r1, [r3, r2]
 8002a76:	687b      	ldr	r3, [r7, #4]
 8002a78:	2242      	movs	r2, #66	; 0x42
 8002a7a:	2101      	movs	r1, #1
 8002a7c:	5499      	strb	r1, [r3, r2]
 8002a7e:	687b      	ldr	r3, [r7, #4]
 8002a80:	2243      	movs	r2, #67	; 0x43
 8002a82:	2101      	movs	r1, #1
 8002a84:	5499      	strb	r1, [r3, r2]
  TIM_CHANNEL_N_STATE_SET_ALL(htim, HAL_TIM_CHANNEL_STATE_READY);
 8002a86:	687b      	ldr	r3, [r7, #4]
 8002a88:	2244      	movs	r2, #68	; 0x44
 8002a8a:	2101      	movs	r1, #1
 8002a8c:	5499      	strb	r1, [r3, r2]
 8002a8e:	687b      	ldr	r3, [r7, #4]
 8002a90:	2245      	movs	r2, #69	; 0x45
 8002a92:	2101      	movs	r1, #1
 8002a94:	5499      	strb	r1, [r3, r2]
 8002a96:	687b      	ldr	r3, [r7, #4]
 8002a98:	2246      	movs	r2, #70	; 0x46
 8002a9a:	2101      	movs	r1, #1
 8002a9c:	5499      	strb	r1, [r3, r2]
 8002a9e:	687b      	ldr	r3, [r7, #4]
 8002aa0:	2247      	movs	r2, #71	; 0x47
 8002aa2:	2101      	movs	r1, #1
 8002aa4:	5499      	strb	r1, [r3, r2]

  /* Initialize the TIM state*/
  htim->State = HAL_TIM_STATE_READY;
 8002aa6:	687b      	ldr	r3, [r7, #4]
 8002aa8:	223d      	movs	r2, #61	; 0x3d
 8002aaa:	2101      	movs	r1, #1
 8002aac:	5499      	strb	r1, [r3, r2]

  return HAL_OK;
 8002aae:	2300      	movs	r3, #0
}
 8002ab0:	0018      	movs	r0, r3
 8002ab2:	46bd      	mov	sp, r7
 8002ab4:	b002      	add	sp, #8
 8002ab6:	bd80      	pop	{r7, pc}

08002ab8 <HAL_TIM_PWM_MspInit>:
  * @brief  Initializes the TIM PWM MSP.
  * @param  htim TIM PWM handle
  * @retval None
  */
__weak void HAL_TIM_PWM_MspInit(TIM_HandleTypeDef *htim)
{
 8002ab8:	b580      	push	{r7, lr}
 8002aba:	b082      	sub	sp, #8
 8002abc:	af00      	add	r7, sp, #0
 8002abe:	6078      	str	r0, [r7, #4]
  UNUSED(htim);

  /* NOTE : This function should not be modified, when the callback is needed,
            the HAL_TIM_PWM_MspInit could be implemented in the user file
   */
}
 8002ac0:	46c0      	nop			; (mov r8, r8)
 8002ac2:	46bd      	mov	sp, r7
 8002ac4:	b002      	add	sp, #8
 8002ac6:	bd80      	pop	{r7, pc}

08002ac8 <HAL_TIM_PWM_Start>:
  *            @arg TIM_CHANNEL_5: TIM Channel 5 selected
  *            @arg TIM_CHANNEL_6: TIM Channel 6 selected
  * @retval HAL status
  */
HAL_StatusTypeDef HAL_TIM_PWM_Start(TIM_HandleTypeDef *htim, uint32_t Channel)
{
 8002ac8:	b580      	push	{r7, lr}
 8002aca:	b084      	sub	sp, #16
 8002acc:	af00      	add	r7, sp, #0
 8002ace:	6078      	str	r0, [r7, #4]
 8002ad0:	6039      	str	r1, [r7, #0]

  /* Check the parameters */
  assert_param(IS_TIM_CCX_INSTANCE(htim->Instance, Channel));

  /* Check the TIM channel state */
  if (TIM_CHANNEL_STATE_GET(htim, Channel) != HAL_TIM_CHANNEL_STATE_READY)
 8002ad2:	683b      	ldr	r3, [r7, #0]
 8002ad4:	2b00      	cmp	r3, #0
 8002ad6:	d108      	bne.n	8002aea <HAL_TIM_PWM_Start+0x22>
 8002ad8:	687b      	ldr	r3, [r7, #4]
 8002ada:	223e      	movs	r2, #62	; 0x3e
 8002adc:	5c9b      	ldrb	r3, [r3, r2]
 8002ade:	b2db      	uxtb	r3, r3
 8002ae0:	3b01      	subs	r3, #1
 8002ae2:	1e5a      	subs	r2, r3, #1
 8002ae4:	4193      	sbcs	r3, r2
 8002ae6:	b2db      	uxtb	r3, r3
 8002ae8:	e037      	b.n	8002b5a <HAL_TIM_PWM_Start+0x92>
 8002aea:	683b      	ldr	r3, [r7, #0]
 8002aec:	2b04      	cmp	r3, #4
 8002aee:	d108      	bne.n	8002b02 <HAL_TIM_PWM_Start+0x3a>
 8002af0:	687b      	ldr	r3, [r7, #4]
 8002af2:	223f      	movs	r2, #63	; 0x3f
 8002af4:	5c9b      	ldrb	r3, [r3, r2]
 8002af6:	b2db      	uxtb	r3, r3
 8002af8:	3b01      	subs	r3, #1
 8002afa:	1e5a      	subs	r2, r3, #1
 8002afc:	4193      	sbcs	r3, r2
 8002afe:	b2db      	uxtb	r3, r3
 8002b00:	e02b      	b.n	8002b5a <HAL_TIM_PWM_Start+0x92>
 8002b02:	683b      	ldr	r3, [r7, #0]
 8002b04:	2b08      	cmp	r3, #8
 8002b06:	d108      	bne.n	8002b1a <HAL_TIM_PWM_Start+0x52>
 8002b08:	687b      	ldr	r3, [r7, #4]
 8002b0a:	2240      	movs	r2, #64	; 0x40
 8002b0c:	5c9b      	ldrb	r3, [r3, r2]
 8002b0e:	b2db      	uxtb	r3, r3
 8002b10:	3b01      	subs	r3, #1
 8002b12:	1e5a      	subs	r2, r3, #1
 8002b14:	4193      	sbcs	r3, r2
 8002b16:	b2db      	uxtb	r3, r3
 8002b18:	e01f      	b.n	8002b5a <HAL_TIM_PWM_Start+0x92>
 8002b1a:	683b      	ldr	r3, [r7, #0]
 8002b1c:	2b0c      	cmp	r3, #12
 8002b1e:	d108      	bne.n	8002b32 <HAL_TIM_PWM_Start+0x6a>
 8002b20:	687b      	ldr	r3, [r7, #4]
 8002b22:	2241      	movs	r2, #65	; 0x41
 8002b24:	5c9b      	ldrb	r3, [r3, r2]
 8002b26:	b2db      	uxtb	r3, r3
 8002b28:	3b01      	subs	r3, #1
 8002b2a:	1e5a      	subs	r2, r3, #1
 8002b2c:	4193      	sbcs	r3, r2
 8002b2e:	b2db      	uxtb	r3, r3
 8002b30:	e013      	b.n	8002b5a <HAL_TIM_PWM_Start+0x92>
 8002b32:	683b      	ldr	r3, [r7, #0]
 8002b34:	2b10      	cmp	r3, #16
 8002b36:	d108      	bne.n	8002b4a <HAL_TIM_PWM_Start+0x82>
 8002b38:	687b      	ldr	r3, [r7, #4]
 8002b3a:	2242      	movs	r2, #66	; 0x42
 8002b3c:	5c9b      	ldrb	r3, [r3, r2]
 8002b3e:	b2db      	uxtb	r3, r3
 8002b40:	3b01      	subs	r3, #1
 8002b42:	1e5a      	subs	r2, r3, #1
 8002b44:	4193      	sbcs	r3, r2
 8002b46:	b2db      	uxtb	r3, r3
 8002b48:	e007      	b.n	8002b5a <HAL_TIM_PWM_Start+0x92>
 8002b4a:	687b      	ldr	r3, [r7, #4]
 8002b4c:	2243      	movs	r2, #67	; 0x43
 8002b4e:	5c9b      	ldrb	r3, [r3, r2]
 8002b50:	b2db      	uxtb	r3, r3
 8002b52:	3b01      	subs	r3, #1
 8002b54:	1e5a      	subs	r2, r3, #1
 8002b56:	4193      	sbcs	r3, r2
 8002b58:	b2db      	uxtb	r3, r3
 8002b5a:	2b00      	cmp	r3, #0
 8002b5c:	d001      	beq.n	8002b62 <HAL_TIM_PWM_Start+0x9a>
  {
    return HAL_ERROR;
 8002b5e:	2301      	movs	r3, #1
 8002b60:	e090      	b.n	8002c84 <HAL_TIM_PWM_Start+0x1bc>
  }

  /* Set the TIM channel state */
  TIM_CHANNEL_STATE_SET(htim, Channel, HAL_TIM_CHANNEL_STATE_BUSY);
 8002b62:	683b      	ldr	r3, [r7, #0]
 8002b64:	2b00      	cmp	r3, #0
 8002b66:	d104      	bne.n	8002b72 <HAL_TIM_PWM_Start+0xaa>
 8002b68:	687b      	ldr	r3, [r7, #4]
 8002b6a:	223e      	movs	r2, #62	; 0x3e
 8002b6c:	2102      	movs	r1, #2
 8002b6e:	5499      	strb	r1, [r3, r2]
 8002b70:	e023      	b.n	8002bba <HAL_TIM_PWM_Start+0xf2>
 8002b72:	683b      	ldr	r3, [r7, #0]
 8002b74:	2b04      	cmp	r3, #4
 8002b76:	d104      	bne.n	8002b82 <HAL_TIM_PWM_Start+0xba>
 8002b78:	687b      	ldr	r3, [r7, #4]
 8002b7a:	223f      	movs	r2, #63	; 0x3f
 8002b7c:	2102      	movs	r1, #2
 8002b7e:	5499      	strb	r1, [r3, r2]
 8002b80:	e01b      	b.n	8002bba <HAL_TIM_PWM_Start+0xf2>
 8002b82:	683b      	ldr	r3, [r7, #0]
 8002b84:	2b08      	cmp	r3, #8
 8002b86:	d104      	bne.n	8002b92 <HAL_TIM_PWM_Start+0xca>
 8002b88:	687b      	ldr	r3, [r7, #4]
 8002b8a:	2240      	movs	r2, #64	; 0x40
 8002b8c:	2102      	movs	r1, #2
 8002b8e:	5499      	strb	r1, [r3, r2]
 8002b90:	e013      	b.n	8002bba <HAL_TIM_PWM_Start+0xf2>
 8002b92:	683b      	ldr	r3, [r7, #0]
 8002b94:	2b0c      	cmp	r3, #12
 8002b96:	d104      	bne.n	8002ba2 <HAL_TIM_PWM_Start+0xda>
 8002b98:	687b      	ldr	r3, [r7, #4]
 8002b9a:	2241      	movs	r2, #65	; 0x41
 8002b9c:	2102      	movs	r1, #2
 8002b9e:	5499      	strb	r1, [r3, r2]
 8002ba0:	e00b      	b.n	8002bba <HAL_TIM_PWM_Start+0xf2>
 8002ba2:	683b      	ldr	r3, [r7, #0]
 8002ba4:	2b10      	cmp	r3, #16
 8002ba6:	d104      	bne.n	8002bb2 <HAL_TIM_PWM_Start+0xea>
 8002ba8:	687b      	ldr	r3, [r7, #4]
 8002baa:	2242      	movs	r2, #66	; 0x42
 8002bac:	2102      	movs	r1, #2
 8002bae:	5499      	strb	r1, [r3, r2]
 8002bb0:	e003      	b.n	8002bba <HAL_TIM_PWM_Start+0xf2>
 8002bb2:	687b      	ldr	r3, [r7, #4]
 8002bb4:	2243      	movs	r2, #67	; 0x43
 8002bb6:	2102      	movs	r1, #2
 8002bb8:	5499      	strb	r1, [r3, r2]

  /* Enable the Capture compare channel */
  TIM_CCxChannelCmd(htim->Instance, Channel, TIM_CCx_ENABLE);
 8002bba:	687b      	ldr	r3, [r7, #4]
 8002bbc:	681b      	ldr	r3, [r3, #0]
 8002bbe:	6839      	ldr	r1, [r7, #0]
 8002bc0:	2201      	movs	r2, #1
 8002bc2:	0018      	movs	r0, r3
 8002bc4:	f000 fe1c 	bl	8003800 <TIM_CCxChannelCmd>

  if (IS_TIM_BREAK_INSTANCE(htim->Instance) != RESET)
 8002bc8:	687b      	ldr	r3, [r7, #4]
 8002bca:	681b      	ldr	r3, [r3, #0]
 8002bcc:	4a2f      	ldr	r2, [pc, #188]	; (8002c8c <HAL_TIM_PWM_Start+0x1c4>)
 8002bce:	4293      	cmp	r3, r2
 8002bd0:	d00e      	beq.n	8002bf0 <HAL_TIM_PWM_Start+0x128>
 8002bd2:	687b      	ldr	r3, [r7, #4]
 8002bd4:	681b      	ldr	r3, [r3, #0]
 8002bd6:	4a2e      	ldr	r2, [pc, #184]	; (8002c90 <HAL_TIM_PWM_Start+0x1c8>)
 8002bd8:	4293      	cmp	r3, r2
 8002bda:	d009      	beq.n	8002bf0 <HAL_TIM_PWM_Start+0x128>
 8002bdc:	687b      	ldr	r3, [r7, #4]
 8002bde:	681b      	ldr	r3, [r3, #0]
 8002be0:	4a2c      	ldr	r2, [pc, #176]	; (8002c94 <HAL_TIM_PWM_Start+0x1cc>)
 8002be2:	4293      	cmp	r3, r2
 8002be4:	d004      	beq.n	8002bf0 <HAL_TIM_PWM_Start+0x128>
 8002be6:	687b      	ldr	r3, [r7, #4]
 8002be8:	681b      	ldr	r3, [r3, #0]
 8002bea:	4a2b      	ldr	r2, [pc, #172]	; (8002c98 <HAL_TIM_PWM_Start+0x1d0>)
 8002bec:	4293      	cmp	r3, r2
 8002bee:	d101      	bne.n	8002bf4 <HAL_TIM_PWM_Start+0x12c>
 8002bf0:	2301      	movs	r3, #1
 8002bf2:	e000      	b.n	8002bf6 <HAL_TIM_PWM_Start+0x12e>
 8002bf4:	2300      	movs	r3, #0
 8002bf6:	2b00      	cmp	r3, #0
 8002bf8:	d008      	beq.n	8002c0c <HAL_TIM_PWM_Start+0x144>
  {
    /* Enable the main output */
    __HAL_TIM_MOE_ENABLE(htim);
 8002bfa:	687b      	ldr	r3, [r7, #4]
 8002bfc:	681b      	ldr	r3, [r3, #0]
 8002bfe:	6c5a      	ldr	r2, [r3, #68]	; 0x44
 8002c00:	687b      	ldr	r3, [r7, #4]
 8002c02:	681b      	ldr	r3, [r3, #0]
 8002c04:	2180      	movs	r1, #128	; 0x80
 8002c06:	0209      	lsls	r1, r1, #8
 8002c08:	430a      	orrs	r2, r1
 8002c0a:	645a      	str	r2, [r3, #68]	; 0x44
  }

  /* Enable the Peripheral, except in trigger mode where enable is automatically done with trigger */
  if (IS_TIM_SLAVE_INSTANCE(htim->Instance))
 8002c0c:	687b      	ldr	r3, [r7, #4]
 8002c0e:	681b      	ldr	r3, [r3, #0]
 8002c10:	4a1e      	ldr	r2, [pc, #120]	; (8002c8c <HAL_TIM_PWM_Start+0x1c4>)
 8002c12:	4293      	cmp	r3, r2
 8002c14:	d014      	beq.n	8002c40 <HAL_TIM_PWM_Start+0x178>
 8002c16:	687b      	ldr	r3, [r7, #4]
 8002c18:	681a      	ldr	r2, [r3, #0]
 8002c1a:	2380      	movs	r3, #128	; 0x80
 8002c1c:	05db      	lsls	r3, r3, #23
 8002c1e:	429a      	cmp	r2, r3
 8002c20:	d00e      	beq.n	8002c40 <HAL_TIM_PWM_Start+0x178>
 8002c22:	687b      	ldr	r3, [r7, #4]
 8002c24:	681b      	ldr	r3, [r3, #0]
 8002c26:	4a1d      	ldr	r2, [pc, #116]	; (8002c9c <HAL_TIM_PWM_Start+0x1d4>)
 8002c28:	4293      	cmp	r3, r2
 8002c2a:	d009      	beq.n	8002c40 <HAL_TIM_PWM_Start+0x178>
 8002c2c:	687b      	ldr	r3, [r7, #4]
 8002c2e:	681b      	ldr	r3, [r3, #0]
 8002c30:	4a1b      	ldr	r2, [pc, #108]	; (8002ca0 <HAL_TIM_PWM_Start+0x1d8>)
 8002c32:	4293      	cmp	r3, r2
 8002c34:	d004      	beq.n	8002c40 <HAL_TIM_PWM_Start+0x178>
 8002c36:	687b      	ldr	r3, [r7, #4]
 8002c38:	681b      	ldr	r3, [r3, #0]
 8002c3a:	4a15      	ldr	r2, [pc, #84]	; (8002c90 <HAL_TIM_PWM_Start+0x1c8>)
 8002c3c:	4293      	cmp	r3, r2
 8002c3e:	d116      	bne.n	8002c6e <HAL_TIM_PWM_Start+0x1a6>
  {
    tmpsmcr = htim->Instance->SMCR & TIM_SMCR_SMS;
 8002c40:	687b      	ldr	r3, [r7, #4]
 8002c42:	681b      	ldr	r3, [r3, #0]
 8002c44:	689b      	ldr	r3, [r3, #8]
 8002c46:	4a17      	ldr	r2, [pc, #92]	; (8002ca4 <HAL_TIM_PWM_Start+0x1dc>)
 8002c48:	4013      	ands	r3, r2
 8002c4a:	60fb      	str	r3, [r7, #12]
    if (!IS_TIM_SLAVEMODE_TRIGGER_ENABLED(tmpsmcr))
 8002c4c:	68fb      	ldr	r3, [r7, #12]
 8002c4e:	2b06      	cmp	r3, #6
 8002c50:	d016      	beq.n	8002c80 <HAL_TIM_PWM_Start+0x1b8>
 8002c52:	68fa      	ldr	r2, [r7, #12]
 8002c54:	2380      	movs	r3, #128	; 0x80
 8002c56:	025b      	lsls	r3, r3, #9
 8002c58:	429a      	cmp	r2, r3
 8002c5a:	d011      	beq.n	8002c80 <HAL_TIM_PWM_Start+0x1b8>
    {
      __HAL_TIM_ENABLE(htim);
 8002c5c:	687b      	ldr	r3, [r7, #4]
 8002c5e:	681b      	ldr	r3, [r3, #0]
 8002c60:	681a      	ldr	r2, [r3, #0]
 8002c62:	687b      	ldr	r3, [r7, #4]
 8002c64:	681b      	ldr	r3, [r3, #0]
 8002c66:	2101      	movs	r1, #1
 8002c68:	430a      	orrs	r2, r1
 8002c6a:	601a      	str	r2, [r3, #0]
    if (!IS_TIM_SLAVEMODE_TRIGGER_ENABLED(tmpsmcr))
 8002c6c:	e008      	b.n	8002c80 <HAL_TIM_PWM_Start+0x1b8>
    }
  }
  else
  {
    __HAL_TIM_ENABLE(htim);
 8002c6e:	687b      	ldr	r3, [r7, #4]
 8002c70:	681b      	ldr	r3, [r3, #0]
 8002c72:	681a      	ldr	r2, [r3, #0]
 8002c74:	687b      	ldr	r3, [r7, #4]
 8002c76:	681b      	ldr	r3, [r3, #0]
 8002c78:	2101      	movs	r1, #1
 8002c7a:	430a      	orrs	r2, r1
 8002c7c:	601a      	str	r2, [r3, #0]
 8002c7e:	e000      	b.n	8002c82 <HAL_TIM_PWM_Start+0x1ba>
    if (!IS_TIM_SLAVEMODE_TRIGGER_ENABLED(tmpsmcr))
 8002c80:	46c0      	nop			; (mov r8, r8)
  }

  /* Return function status */
  return HAL_OK;
 8002c82:	2300      	movs	r3, #0
}
 8002c84:	0018      	movs	r0, r3
 8002c86:	46bd      	mov	sp, r7
 8002c88:	b004      	add	sp, #16
 8002c8a:	bd80      	pop	{r7, pc}
 8002c8c:	40012c00 	.word	0x40012c00
 8002c90:	40014000 	.word	0x40014000
 8002c94:	40014400 	.word	0x40014400
 8002c98:	40014800 	.word	0x40014800
 8002c9c:	40000400 	.word	0x40000400
 8002ca0:	40000800 	.word	0x40000800
 8002ca4:	00010007 	.word	0x00010007

08002ca8 <HAL_TIM_PWM_ConfigChannel>:
  * @retval HAL status
  */
HAL_StatusTypeDef HAL_TIM_PWM_ConfigChannel(TIM_HandleTypeDef *htim,
                                            TIM_OC_InitTypeDef *sConfig,
                                            uint32_t Channel)
{
 8002ca8:	b580      	push	{r7, lr}
 8002caa:	b084      	sub	sp, #16
 8002cac:	af00      	add	r7, sp, #0
 8002cae:	60f8      	str	r0, [r7, #12]
 8002cb0:	60b9      	str	r1, [r7, #8]
 8002cb2:	607a      	str	r2, [r7, #4]
  assert_param(IS_TIM_PWM_MODE(sConfig->OCMode));
  assert_param(IS_TIM_OC_POLARITY(sConfig->OCPolarity));
  assert_param(IS_TIM_FAST_STATE(sConfig->OCFastMode));

  /* Process Locked */
  __HAL_LOCK(htim);
 8002cb4:	68fb      	ldr	r3, [r7, #12]
 8002cb6:	223c      	movs	r2, #60	; 0x3c
 8002cb8:	5c9b      	ldrb	r3, [r3, r2]
 8002cba:	2b01      	cmp	r3, #1
 8002cbc:	d101      	bne.n	8002cc2 <HAL_TIM_PWM_ConfigChannel+0x1a>
 8002cbe:	2302      	movs	r3, #2
 8002cc0:	e0df      	b.n	8002e82 <HAL_TIM_PWM_ConfigChannel+0x1da>
 8002cc2:	68fb      	ldr	r3, [r7, #12]
 8002cc4:	223c      	movs	r2, #60	; 0x3c
 8002cc6:	2101      	movs	r1, #1
 8002cc8:	5499      	strb	r1, [r3, r2]
 8002cca:	687b      	ldr	r3, [r7, #4]
 8002ccc:	2b14      	cmp	r3, #20
 8002cce:	d900      	bls.n	8002cd2 <HAL_TIM_PWM_ConfigChannel+0x2a>
 8002cd0:	e0d1      	b.n	8002e76 <HAL_TIM_PWM_ConfigChannel+0x1ce>
 8002cd2:	687b      	ldr	r3, [r7, #4]
 8002cd4:	009a      	lsls	r2, r3, #2
 8002cd6:	4b6d      	ldr	r3, [pc, #436]	; (8002e8c <HAL_TIM_PWM_ConfigChannel+0x1e4>)
 8002cd8:	18d3      	adds	r3, r2, r3
 8002cda:	681b      	ldr	r3, [r3, #0]
 8002cdc:	469f      	mov	pc, r3
    {
      /* Check the parameters */
      assert_param(IS_TIM_CC1_INSTANCE(htim->Instance));

      /* Configure the Channel 1 in PWM mode */
      TIM_OC1_SetConfig(htim->Instance, sConfig);
 8002cde:	68fb      	ldr	r3, [r7, #12]
 8002ce0:	681b      	ldr	r3, [r3, #0]
 8002ce2:	68ba      	ldr	r2, [r7, #8]
 8002ce4:	0011      	movs	r1, r2
 8002ce6:	0018      	movs	r0, r3
 8002ce8:	f000 fa2a 	bl	8003140 <TIM_OC1_SetConfig>

      /* Set the Preload enable bit for channel1 */
      htim->Instance->CCMR1 |= TIM_CCMR1_OC1PE;
 8002cec:	68fb      	ldr	r3, [r7, #12]
 8002cee:	681b      	ldr	r3, [r3, #0]
 8002cf0:	699a      	ldr	r2, [r3, #24]
 8002cf2:	68fb      	ldr	r3, [r7, #12]
 8002cf4:	681b      	ldr	r3, [r3, #0]
 8002cf6:	2108      	movs	r1, #8
 8002cf8:	430a      	orrs	r2, r1
 8002cfa:	619a      	str	r2, [r3, #24]

      /* Configure the Output Fast mode */
      htim->Instance->CCMR1 &= ~TIM_CCMR1_OC1FE;
 8002cfc:	68fb      	ldr	r3, [r7, #12]
 8002cfe:	681b      	ldr	r3, [r3, #0]
 8002d00:	699a      	ldr	r2, [r3, #24]
 8002d02:	68fb      	ldr	r3, [r7, #12]
 8002d04:	681b      	ldr	r3, [r3, #0]
 8002d06:	2104      	movs	r1, #4
 8002d08:	438a      	bics	r2, r1
 8002d0a:	619a      	str	r2, [r3, #24]
      htim->Instance->CCMR1 |= sConfig->OCFastMode;
 8002d0c:	68fb      	ldr	r3, [r7, #12]
 8002d0e:	681b      	ldr	r3, [r3, #0]
 8002d10:	6999      	ldr	r1, [r3, #24]
 8002d12:	68bb      	ldr	r3, [r7, #8]
 8002d14:	691a      	ldr	r2, [r3, #16]
 8002d16:	68fb      	ldr	r3, [r7, #12]
 8002d18:	681b      	ldr	r3, [r3, #0]
 8002d1a:	430a      	orrs	r2, r1
 8002d1c:	619a      	str	r2, [r3, #24]
      break;
 8002d1e:	e0ab      	b.n	8002e78 <HAL_TIM_PWM_ConfigChannel+0x1d0>
    {
      /* Check the parameters */
      assert_param(IS_TIM_CC2_INSTANCE(htim->Instance));

      /* Configure the Channel 2 in PWM mode */
      TIM_OC2_SetConfig(htim->Instance, sConfig);
 8002d20:	68fb      	ldr	r3, [r7, #12]
 8002d22:	681b      	ldr	r3, [r3, #0]
 8002d24:	68ba      	ldr	r2, [r7, #8]
 8002d26:	0011      	movs	r1, r2
 8002d28:	0018      	movs	r0, r3
 8002d2a:	f000 fa93 	bl	8003254 <TIM_OC2_SetConfig>

      /* Set the Preload enable bit for channel2 */
      htim->Instance->CCMR1 |= TIM_CCMR1_OC2PE;
 8002d2e:	68fb      	ldr	r3, [r7, #12]
 8002d30:	681b      	ldr	r3, [r3, #0]
 8002d32:	699a      	ldr	r2, [r3, #24]
 8002d34:	68fb      	ldr	r3, [r7, #12]
 8002d36:	681b      	ldr	r3, [r3, #0]
 8002d38:	2180      	movs	r1, #128	; 0x80
 8002d3a:	0109      	lsls	r1, r1, #4
 8002d3c:	430a      	orrs	r2, r1
 8002d3e:	619a      	str	r2, [r3, #24]

      /* Configure the Output Fast mode */
      htim->Instance->CCMR1 &= ~TIM_CCMR1_OC2FE;
 8002d40:	68fb      	ldr	r3, [r7, #12]
 8002d42:	681b      	ldr	r3, [r3, #0]
 8002d44:	699a      	ldr	r2, [r3, #24]
 8002d46:	68fb      	ldr	r3, [r7, #12]
 8002d48:	681b      	ldr	r3, [r3, #0]
 8002d4a:	4951      	ldr	r1, [pc, #324]	; (8002e90 <HAL_TIM_PWM_ConfigChannel+0x1e8>)
 8002d4c:	400a      	ands	r2, r1
 8002d4e:	619a      	str	r2, [r3, #24]
      htim->Instance->CCMR1 |= sConfig->OCFastMode << 8U;
 8002d50:	68fb      	ldr	r3, [r7, #12]
 8002d52:	681b      	ldr	r3, [r3, #0]
 8002d54:	6999      	ldr	r1, [r3, #24]
 8002d56:	68bb      	ldr	r3, [r7, #8]
 8002d58:	691b      	ldr	r3, [r3, #16]
 8002d5a:	021a      	lsls	r2, r3, #8
 8002d5c:	68fb      	ldr	r3, [r7, #12]
 8002d5e:	681b      	ldr	r3, [r3, #0]
 8002d60:	430a      	orrs	r2, r1
 8002d62:	619a      	str	r2, [r3, #24]
      break;
 8002d64:	e088      	b.n	8002e78 <HAL_TIM_PWM_ConfigChannel+0x1d0>
    {
      /* Check the parameters */
      assert_param(IS_TIM_CC3_INSTANCE(htim->Instance));

      /* Configure the Channel 3 in PWM mode */
      TIM_OC3_SetConfig(htim->Instance, sConfig);
 8002d66:	68fb      	ldr	r3, [r7, #12]
 8002d68:	681b      	ldr	r3, [r3, #0]
 8002d6a:	68ba      	ldr	r2, [r7, #8]
 8002d6c:	0011      	movs	r1, r2
 8002d6e:	0018      	movs	r0, r3
 8002d70:	f000 faf4 	bl	800335c <TIM_OC3_SetConfig>

      /* Set the Preload enable bit for channel3 */
      htim->Instance->CCMR2 |= TIM_CCMR2_OC3PE;
 8002d74:	68fb      	ldr	r3, [r7, #12]
 8002d76:	681b      	ldr	r3, [r3, #0]
 8002d78:	69da      	ldr	r2, [r3, #28]
 8002d7a:	68fb      	ldr	r3, [r7, #12]
 8002d7c:	681b      	ldr	r3, [r3, #0]
 8002d7e:	2108      	movs	r1, #8
 8002d80:	430a      	orrs	r2, r1
 8002d82:	61da      	str	r2, [r3, #28]

      /* Configure the Output Fast mode */
      htim->Instance->CCMR2 &= ~TIM_CCMR2_OC3FE;
 8002d84:	68fb      	ldr	r3, [r7, #12]
 8002d86:	681b      	ldr	r3, [r3, #0]
 8002d88:	69da      	ldr	r2, [r3, #28]
 8002d8a:	68fb      	ldr	r3, [r7, #12]
 8002d8c:	681b      	ldr	r3, [r3, #0]
 8002d8e:	2104      	movs	r1, #4
 8002d90:	438a      	bics	r2, r1
 8002d92:	61da      	str	r2, [r3, #28]
      htim->Instance->CCMR2 |= sConfig->OCFastMode;
 8002d94:	68fb      	ldr	r3, [r7, #12]
 8002d96:	681b      	ldr	r3, [r3, #0]
 8002d98:	69d9      	ldr	r1, [r3, #28]
 8002d9a:	68bb      	ldr	r3, [r7, #8]
 8002d9c:	691a      	ldr	r2, [r3, #16]
 8002d9e:	68fb      	ldr	r3, [r7, #12]
 8002da0:	681b      	ldr	r3, [r3, #0]
 8002da2:	430a      	orrs	r2, r1
 8002da4:	61da      	str	r2, [r3, #28]
      break;
 8002da6:	e067      	b.n	8002e78 <HAL_TIM_PWM_ConfigChannel+0x1d0>
    {
      /* Check the parameters */
      assert_param(IS_TIM_CC4_INSTANCE(htim->Instance));

      /* Configure the Channel 4 in PWM mode */
      TIM_OC4_SetConfig(htim->Instance, sConfig);
 8002da8:	68fb      	ldr	r3, [r7, #12]
 8002daa:	681b      	ldr	r3, [r3, #0]
 8002dac:	68ba      	ldr	r2, [r7, #8]
 8002dae:	0011      	movs	r1, r2
 8002db0:	0018      	movs	r0, r3
 8002db2:	f000 fb5b 	bl	800346c <TIM_OC4_SetConfig>

      /* Set the Preload enable bit for channel4 */
      htim->Instance->CCMR2 |= TIM_CCMR2_OC4PE;
 8002db6:	68fb      	ldr	r3, [r7, #12]
 8002db8:	681b      	ldr	r3, [r3, #0]
 8002dba:	69da      	ldr	r2, [r3, #28]
 8002dbc:	68fb      	ldr	r3, [r7, #12]
 8002dbe:	681b      	ldr	r3, [r3, #0]
 8002dc0:	2180      	movs	r1, #128	; 0x80
 8002dc2:	0109      	lsls	r1, r1, #4
 8002dc4:	430a      	orrs	r2, r1
 8002dc6:	61da      	str	r2, [r3, #28]

      /* Configure the Output Fast mode */
      htim->Instance->CCMR2 &= ~TIM_CCMR2_OC4FE;
 8002dc8:	68fb      	ldr	r3, [r7, #12]
 8002dca:	681b      	ldr	r3, [r3, #0]
 8002dcc:	69da      	ldr	r2, [r3, #28]
 8002dce:	68fb      	ldr	r3, [r7, #12]
 8002dd0:	681b      	ldr	r3, [r3, #0]
 8002dd2:	492f      	ldr	r1, [pc, #188]	; (8002e90 <HAL_TIM_PWM_ConfigChannel+0x1e8>)
 8002dd4:	400a      	ands	r2, r1
 8002dd6:	61da      	str	r2, [r3, #28]
      htim->Instance->CCMR2 |= sConfig->OCFastMode << 8U;
 8002dd8:	68fb      	ldr	r3, [r7, #12]
 8002dda:	681b      	ldr	r3, [r3, #0]
 8002ddc:	69d9      	ldr	r1, [r3, #28]
 8002dde:	68bb      	ldr	r3, [r7, #8]
 8002de0:	691b      	ldr	r3, [r3, #16]
 8002de2:	021a      	lsls	r2, r3, #8
 8002de4:	68fb      	ldr	r3, [r7, #12]
 8002de6:	681b      	ldr	r3, [r3, #0]
 8002de8:	430a      	orrs	r2, r1
 8002dea:	61da      	str	r2, [r3, #28]
      break;
 8002dec:	e044      	b.n	8002e78 <HAL_TIM_PWM_ConfigChannel+0x1d0>
    {
      /* Check the parameters */
      assert_param(IS_TIM_CC5_INSTANCE(htim->Instance));

      /* Configure the Channel 5 in PWM mode */
      TIM_OC5_SetConfig(htim->Instance, sConfig);
 8002dee:	68fb      	ldr	r3, [r7, #12]
 8002df0:	681b      	ldr	r3, [r3, #0]
 8002df2:	68ba      	ldr	r2, [r7, #8]
 8002df4:	0011      	movs	r1, r2
 8002df6:	0018      	movs	r0, r3
 8002df8:	f000 fba2 	bl	8003540 <TIM_OC5_SetConfig>

      /* Set the Preload enable bit for channel5*/
      htim->Instance->CCMR3 |= TIM_CCMR3_OC5PE;
 8002dfc:	68fb      	ldr	r3, [r7, #12]
 8002dfe:	681b      	ldr	r3, [r3, #0]
 8002e00:	6d5a      	ldr	r2, [r3, #84]	; 0x54
 8002e02:	68fb      	ldr	r3, [r7, #12]
 8002e04:	681b      	ldr	r3, [r3, #0]
 8002e06:	2108      	movs	r1, #8
 8002e08:	430a      	orrs	r2, r1
 8002e0a:	655a      	str	r2, [r3, #84]	; 0x54

      /* Configure the Output Fast mode */
      htim->Instance->CCMR3 &= ~TIM_CCMR3_OC5FE;
 8002e0c:	68fb      	ldr	r3, [r7, #12]
 8002e0e:	681b      	ldr	r3, [r3, #0]
 8002e10:	6d5a      	ldr	r2, [r3, #84]	; 0x54
 8002e12:	68fb      	ldr	r3, [r7, #12]
 8002e14:	681b      	ldr	r3, [r3, #0]
 8002e16:	2104      	movs	r1, #4
 8002e18:	438a      	bics	r2, r1
 8002e1a:	655a      	str	r2, [r3, #84]	; 0x54
      htim->Instance->CCMR3 |= sConfig->OCFastMode;
 8002e1c:	68fb      	ldr	r3, [r7, #12]
 8002e1e:	681b      	ldr	r3, [r3, #0]
 8002e20:	6d59      	ldr	r1, [r3, #84]	; 0x54
 8002e22:	68bb      	ldr	r3, [r7, #8]
 8002e24:	691a      	ldr	r2, [r3, #16]
 8002e26:	68fb      	ldr	r3, [r7, #12]
 8002e28:	681b      	ldr	r3, [r3, #0]
 8002e2a:	430a      	orrs	r2, r1
 8002e2c:	655a      	str	r2, [r3, #84]	; 0x54
      break;
 8002e2e:	e023      	b.n	8002e78 <HAL_TIM_PWM_ConfigChannel+0x1d0>
    {
      /* Check the parameters */
      assert_param(IS_TIM_CC6_INSTANCE(htim->Instance));

      /* Configure the Channel 6 in PWM mode */
      TIM_OC6_SetConfig(htim->Instance, sConfig);
 8002e30:	68fb      	ldr	r3, [r7, #12]
 8002e32:	681b      	ldr	r3, [r3, #0]
 8002e34:	68ba      	ldr	r2, [r7, #8]
 8002e36:	0011      	movs	r1, r2
 8002e38:	0018      	movs	r0, r3
 8002e3a:	f000 fbe1 	bl	8003600 <TIM_OC6_SetConfig>

      /* Set the Preload enable bit for channel6 */
      htim->Instance->CCMR3 |= TIM_CCMR3_OC6PE;
 8002e3e:	68fb      	ldr	r3, [r7, #12]
 8002e40:	681b      	ldr	r3, [r3, #0]
 8002e42:	6d5a      	ldr	r2, [r3, #84]	; 0x54
 8002e44:	68fb      	ldr	r3, [r7, #12]
 8002e46:	681b      	ldr	r3, [r3, #0]
 8002e48:	2180      	movs	r1, #128	; 0x80
 8002e4a:	0109      	lsls	r1, r1, #4
 8002e4c:	430a      	orrs	r2, r1
 8002e4e:	655a      	str	r2, [r3, #84]	; 0x54

      /* Configure the Output Fast mode */
      htim->Instance->CCMR3 &= ~TIM_CCMR3_OC6FE;
 8002e50:	68fb      	ldr	r3, [r7, #12]
 8002e52:	681b      	ldr	r3, [r3, #0]
 8002e54:	6d5a      	ldr	r2, [r3, #84]	; 0x54
 8002e56:	68fb      	ldr	r3, [r7, #12]
 8002e58:	681b      	ldr	r3, [r3, #0]
 8002e5a:	490d      	ldr	r1, [pc, #52]	; (8002e90 <HAL_TIM_PWM_ConfigChannel+0x1e8>)
 8002e5c:	400a      	ands	r2, r1
 8002e5e:	655a      	str	r2, [r3, #84]	; 0x54
      htim->Instance->CCMR3 |= sConfig->OCFastMode << 8U;
 8002e60:	68fb      	ldr	r3, [r7, #12]
 8002e62:	681b      	ldr	r3, [r3, #0]
 8002e64:	6d59      	ldr	r1, [r3, #84]	; 0x54
 8002e66:	68bb      	ldr	r3, [r7, #8]
 8002e68:	691b      	ldr	r3, [r3, #16]
 8002e6a:	021a      	lsls	r2, r3, #8
 8002e6c:	68fb      	ldr	r3, [r7, #12]
 8002e6e:	681b      	ldr	r3, [r3, #0]
 8002e70:	430a      	orrs	r2, r1
 8002e72:	655a      	str	r2, [r3, #84]	; 0x54
      break;
 8002e74:	e000      	b.n	8002e78 <HAL_TIM_PWM_ConfigChannel+0x1d0>
    }

    default:
      break;
 8002e76:	46c0      	nop			; (mov r8, r8)
  }

  __HAL_UNLOCK(htim);
 8002e78:	68fb      	ldr	r3, [r7, #12]
 8002e7a:	223c      	movs	r2, #60	; 0x3c
 8002e7c:	2100      	movs	r1, #0
 8002e7e:	5499      	strb	r1, [r3, r2]

  return HAL_OK;
 8002e80:	2300      	movs	r3, #0
}
 8002e82:	0018      	movs	r0, r3
 8002e84:	46bd      	mov	sp, r7
 8002e86:	b004      	add	sp, #16
 8002e88:	bd80      	pop	{r7, pc}
 8002e8a:	46c0      	nop			; (mov r8, r8)
 8002e8c:	080039e4 	.word	0x080039e4
 8002e90:	fffffbff 	.word	0xfffffbff

08002e94 <HAL_TIM_ConfigClockSource>:
  * @param  sClockSourceConfig pointer to a TIM_ClockConfigTypeDef structure that
  *         contains the clock source information for the TIM peripheral.
  * @retval HAL status
  */
HAL_StatusTypeDef HAL_TIM_ConfigClockSource(TIM_HandleTypeDef *htim, TIM_ClockConfigTypeDef *sClockSourceConfig)
{
 8002e94:	b580      	push	{r7, lr}
 8002e96:	b084      	sub	sp, #16
 8002e98:	af00      	add	r7, sp, #0
 8002e9a:	6078      	str	r0, [r7, #4]
 8002e9c:	6039      	str	r1, [r7, #0]
  uint32_t tmpsmcr;

  /* Process Locked */
  __HAL_LOCK(htim);
 8002e9e:	687b      	ldr	r3, [r7, #4]
 8002ea0:	223c      	movs	r2, #60	; 0x3c
 8002ea2:	5c9b      	ldrb	r3, [r3, r2]
 8002ea4:	2b01      	cmp	r3, #1
 8002ea6:	d101      	bne.n	8002eac <HAL_TIM_ConfigClockSource+0x18>
 8002ea8:	2302      	movs	r3, #2
 8002eaa:	e0b7      	b.n	800301c <HAL_TIM_ConfigClockSource+0x188>
 8002eac:	687b      	ldr	r3, [r7, #4]
 8002eae:	223c      	movs	r2, #60	; 0x3c
 8002eb0:	2101      	movs	r1, #1
 8002eb2:	5499      	strb	r1, [r3, r2]

  htim->State = HAL_TIM_STATE_BUSY;
 8002eb4:	687b      	ldr	r3, [r7, #4]
 8002eb6:	223d      	movs	r2, #61	; 0x3d
 8002eb8:	2102      	movs	r1, #2
 8002eba:	5499      	strb	r1, [r3, r2]

  /* Check the parameters */
  assert_param(IS_TIM_CLOCKSOURCE(sClockSourceConfig->ClockSource));

  /* Reset the SMS, TS, ECE, ETPS and ETRF bits */
  tmpsmcr = htim->Instance->SMCR;
 8002ebc:	687b      	ldr	r3, [r7, #4]
 8002ebe:	681b      	ldr	r3, [r3, #0]
 8002ec0:	689b      	ldr	r3, [r3, #8]
 8002ec2:	60fb      	str	r3, [r7, #12]
  tmpsmcr &= ~(TIM_SMCR_SMS | TIM_SMCR_TS);
 8002ec4:	68fb      	ldr	r3, [r7, #12]
 8002ec6:	4a57      	ldr	r2, [pc, #348]	; (8003024 <HAL_TIM_ConfigClockSource+0x190>)
 8002ec8:	4013      	ands	r3, r2
 8002eca:	60fb      	str	r3, [r7, #12]
  tmpsmcr &= ~(TIM_SMCR_ETF | TIM_SMCR_ETPS | TIM_SMCR_ECE | TIM_SMCR_ETP);
 8002ecc:	68fb      	ldr	r3, [r7, #12]
 8002ece:	4a56      	ldr	r2, [pc, #344]	; (8003028 <HAL_TIM_ConfigClockSource+0x194>)
 8002ed0:	4013      	ands	r3, r2
 8002ed2:	60fb      	str	r3, [r7, #12]
  htim->Instance->SMCR = tmpsmcr;
 8002ed4:	687b      	ldr	r3, [r7, #4]
 8002ed6:	681b      	ldr	r3, [r3, #0]
 8002ed8:	68fa      	ldr	r2, [r7, #12]
 8002eda:	609a      	str	r2, [r3, #8]

  switch (sClockSourceConfig->ClockSource)
 8002edc:	683b      	ldr	r3, [r7, #0]
 8002ede:	681b      	ldr	r3, [r3, #0]
 8002ee0:	2280      	movs	r2, #128	; 0x80
 8002ee2:	0192      	lsls	r2, r2, #6
 8002ee4:	4293      	cmp	r3, r2
 8002ee6:	d040      	beq.n	8002f6a <HAL_TIM_ConfigClockSource+0xd6>
 8002ee8:	2280      	movs	r2, #128	; 0x80
 8002eea:	0192      	lsls	r2, r2, #6
 8002eec:	4293      	cmp	r3, r2
 8002eee:	d900      	bls.n	8002ef2 <HAL_TIM_ConfigClockSource+0x5e>
 8002ef0:	e088      	b.n	8003004 <HAL_TIM_ConfigClockSource+0x170>
 8002ef2:	2280      	movs	r2, #128	; 0x80
 8002ef4:	0152      	lsls	r2, r2, #5
 8002ef6:	4293      	cmp	r3, r2
 8002ef8:	d100      	bne.n	8002efc <HAL_TIM_ConfigClockSource+0x68>
 8002efa:	e085      	b.n	8003008 <HAL_TIM_ConfigClockSource+0x174>
 8002efc:	2280      	movs	r2, #128	; 0x80
 8002efe:	0152      	lsls	r2, r2, #5
 8002f00:	4293      	cmp	r3, r2
 8002f02:	d900      	bls.n	8002f06 <HAL_TIM_ConfigClockSource+0x72>
 8002f04:	e07e      	b.n	8003004 <HAL_TIM_ConfigClockSource+0x170>
 8002f06:	2b70      	cmp	r3, #112	; 0x70
 8002f08:	d018      	beq.n	8002f3c <HAL_TIM_ConfigClockSource+0xa8>
 8002f0a:	d900      	bls.n	8002f0e <HAL_TIM_ConfigClockSource+0x7a>
 8002f0c:	e07a      	b.n	8003004 <HAL_TIM_ConfigClockSource+0x170>
 8002f0e:	2b60      	cmp	r3, #96	; 0x60
 8002f10:	d04f      	beq.n	8002fb2 <HAL_TIM_ConfigClockSource+0x11e>
 8002f12:	d900      	bls.n	8002f16 <HAL_TIM_ConfigClockSource+0x82>
 8002f14:	e076      	b.n	8003004 <HAL_TIM_ConfigClockSource+0x170>
 8002f16:	2b50      	cmp	r3, #80	; 0x50
 8002f18:	d03b      	beq.n	8002f92 <HAL_TIM_ConfigClockSource+0xfe>
 8002f1a:	d900      	bls.n	8002f1e <HAL_TIM_ConfigClockSource+0x8a>
 8002f1c:	e072      	b.n	8003004 <HAL_TIM_ConfigClockSource+0x170>
 8002f1e:	2b40      	cmp	r3, #64	; 0x40
 8002f20:	d057      	beq.n	8002fd2 <HAL_TIM_ConfigClockSource+0x13e>
 8002f22:	d900      	bls.n	8002f26 <HAL_TIM_ConfigClockSource+0x92>
 8002f24:	e06e      	b.n	8003004 <HAL_TIM_ConfigClockSource+0x170>
 8002f26:	2b30      	cmp	r3, #48	; 0x30
 8002f28:	d063      	beq.n	8002ff2 <HAL_TIM_ConfigClockSource+0x15e>
 8002f2a:	d86b      	bhi.n	8003004 <HAL_TIM_ConfigClockSource+0x170>
 8002f2c:	2b20      	cmp	r3, #32
 8002f2e:	d060      	beq.n	8002ff2 <HAL_TIM_ConfigClockSource+0x15e>
 8002f30:	d868      	bhi.n	8003004 <HAL_TIM_ConfigClockSource+0x170>
 8002f32:	2b00      	cmp	r3, #0
 8002f34:	d05d      	beq.n	8002ff2 <HAL_TIM_ConfigClockSource+0x15e>
 8002f36:	2b10      	cmp	r3, #16
 8002f38:	d05b      	beq.n	8002ff2 <HAL_TIM_ConfigClockSource+0x15e>
        TIM_ITRx_SetConfig(htim->Instance, sClockSourceConfig->ClockSource);
        break;
      }

    default:
      break;
 8002f3a:	e063      	b.n	8003004 <HAL_TIM_ConfigClockSource+0x170>
      TIM_ETR_SetConfig(htim->Instance,
 8002f3c:	687b      	ldr	r3, [r7, #4]
 8002f3e:	6818      	ldr	r0, [r3, #0]
 8002f40:	683b      	ldr	r3, [r7, #0]
 8002f42:	6899      	ldr	r1, [r3, #8]
 8002f44:	683b      	ldr	r3, [r7, #0]
 8002f46:	685a      	ldr	r2, [r3, #4]
 8002f48:	683b      	ldr	r3, [r7, #0]
 8002f4a:	68db      	ldr	r3, [r3, #12]
 8002f4c:	f000 fc38 	bl	80037c0 <TIM_ETR_SetConfig>
      tmpsmcr = htim->Instance->SMCR;
 8002f50:	687b      	ldr	r3, [r7, #4]
 8002f52:	681b      	ldr	r3, [r3, #0]
 8002f54:	689b      	ldr	r3, [r3, #8]
 8002f56:	60fb      	str	r3, [r7, #12]
      tmpsmcr |= (TIM_SLAVEMODE_EXTERNAL1 | TIM_CLOCKSOURCE_ETRMODE1);
 8002f58:	68fb      	ldr	r3, [r7, #12]
 8002f5a:	2277      	movs	r2, #119	; 0x77
 8002f5c:	4313      	orrs	r3, r2
 8002f5e:	60fb      	str	r3, [r7, #12]
      htim->Instance->SMCR = tmpsmcr;
 8002f60:	687b      	ldr	r3, [r7, #4]
 8002f62:	681b      	ldr	r3, [r3, #0]
 8002f64:	68fa      	ldr	r2, [r7, #12]
 8002f66:	609a      	str	r2, [r3, #8]
      break;
 8002f68:	e04f      	b.n	800300a <HAL_TIM_ConfigClockSource+0x176>
      TIM_ETR_SetConfig(htim->Instance,
 8002f6a:	687b      	ldr	r3, [r7, #4]
 8002f6c:	6818      	ldr	r0, [r3, #0]
 8002f6e:	683b      	ldr	r3, [r7, #0]
 8002f70:	6899      	ldr	r1, [r3, #8]
 8002f72:	683b      	ldr	r3, [r7, #0]
 8002f74:	685a      	ldr	r2, [r3, #4]
 8002f76:	683b      	ldr	r3, [r7, #0]
 8002f78:	68db      	ldr	r3, [r3, #12]
 8002f7a:	f000 fc21 	bl	80037c0 <TIM_ETR_SetConfig>
      htim->Instance->SMCR |= TIM_SMCR_ECE;
 8002f7e:	687b      	ldr	r3, [r7, #4]
 8002f80:	681b      	ldr	r3, [r3, #0]
 8002f82:	689a      	ldr	r2, [r3, #8]
 8002f84:	687b      	ldr	r3, [r7, #4]
 8002f86:	681b      	ldr	r3, [r3, #0]
 8002f88:	2180      	movs	r1, #128	; 0x80
 8002f8a:	01c9      	lsls	r1, r1, #7
 8002f8c:	430a      	orrs	r2, r1
 8002f8e:	609a      	str	r2, [r3, #8]
      break;
 8002f90:	e03b      	b.n	800300a <HAL_TIM_ConfigClockSource+0x176>
      TIM_TI1_ConfigInputStage(htim->Instance,
 8002f92:	687b      	ldr	r3, [r7, #4]
 8002f94:	6818      	ldr	r0, [r3, #0]
 8002f96:	683b      	ldr	r3, [r7, #0]
 8002f98:	6859      	ldr	r1, [r3, #4]
 8002f9a:	683b      	ldr	r3, [r7, #0]
 8002f9c:	68db      	ldr	r3, [r3, #12]
 8002f9e:	001a      	movs	r2, r3
 8002fa0:	f000 fb92 	bl	80036c8 <TIM_TI1_ConfigInputStage>
      TIM_ITRx_SetConfig(htim->Instance, TIM_CLOCKSOURCE_TI1);
 8002fa4:	687b      	ldr	r3, [r7, #4]
 8002fa6:	681b      	ldr	r3, [r3, #0]
 8002fa8:	2150      	movs	r1, #80	; 0x50
 8002faa:	0018      	movs	r0, r3
 8002fac:	f000 fbec 	bl	8003788 <TIM_ITRx_SetConfig>
      break;
 8002fb0:	e02b      	b.n	800300a <HAL_TIM_ConfigClockSource+0x176>
      TIM_TI2_ConfigInputStage(htim->Instance,
 8002fb2:	687b      	ldr	r3, [r7, #4]
 8002fb4:	6818      	ldr	r0, [r3, #0]
 8002fb6:	683b      	ldr	r3, [r7, #0]
 8002fb8:	6859      	ldr	r1, [r3, #4]
 8002fba:	683b      	ldr	r3, [r7, #0]
 8002fbc:	68db      	ldr	r3, [r3, #12]
 8002fbe:	001a      	movs	r2, r3
 8002fc0:	f000 fbb0 	bl	8003724 <TIM_TI2_ConfigInputStage>
      TIM_ITRx_SetConfig(htim->Instance, TIM_CLOCKSOURCE_TI2);
 8002fc4:	687b      	ldr	r3, [r7, #4]
 8002fc6:	681b      	ldr	r3, [r3, #0]
 8002fc8:	2160      	movs	r1, #96	; 0x60
 8002fca:	0018      	movs	r0, r3
 8002fcc:	f000 fbdc 	bl	8003788 <TIM_ITRx_SetConfig>
      break;
 8002fd0:	e01b      	b.n	800300a <HAL_TIM_ConfigClockSource+0x176>
      TIM_TI1_ConfigInputStage(htim->Instance,
 8002fd2:	687b      	ldr	r3, [r7, #4]
 8002fd4:	6818      	ldr	r0, [r3, #0]
 8002fd6:	683b      	ldr	r3, [r7, #0]
 8002fd8:	6859      	ldr	r1, [r3, #4]
 8002fda:	683b      	ldr	r3, [r7, #0]
 8002fdc:	68db      	ldr	r3, [r3, #12]
 8002fde:	001a      	movs	r2, r3
 8002fe0:	f000 fb72 	bl	80036c8 <TIM_TI1_ConfigInputStage>
      TIM_ITRx_SetConfig(htim->Instance, TIM_CLOCKSOURCE_TI1ED);
 8002fe4:	687b      	ldr	r3, [r7, #4]
 8002fe6:	681b      	ldr	r3, [r3, #0]
 8002fe8:	2140      	movs	r1, #64	; 0x40
 8002fea:	0018      	movs	r0, r3
 8002fec:	f000 fbcc 	bl	8003788 <TIM_ITRx_SetConfig>
      break;
 8002ff0:	e00b      	b.n	800300a <HAL_TIM_ConfigClockSource+0x176>
        TIM_ITRx_SetConfig(htim->Instance, sClockSourceConfig->ClockSource);
 8002ff2:	687b      	ldr	r3, [r7, #4]
 8002ff4:	681a      	ldr	r2, [r3, #0]
 8002ff6:	683b      	ldr	r3, [r7, #0]
 8002ff8:	681b      	ldr	r3, [r3, #0]
 8002ffa:	0019      	movs	r1, r3
 8002ffc:	0010      	movs	r0, r2
 8002ffe:	f000 fbc3 	bl	8003788 <TIM_ITRx_SetConfig>
        break;
 8003002:	e002      	b.n	800300a <HAL_TIM_ConfigClockSource+0x176>
      break;
 8003004:	46c0      	nop			; (mov r8, r8)
 8003006:	e000      	b.n	800300a <HAL_TIM_ConfigClockSource+0x176>
      break;
 8003008:	46c0      	nop			; (mov r8, r8)
  }
  htim->State = HAL_TIM_STATE_READY;
 800300a:	687b      	ldr	r3, [r7, #4]
 800300c:	223d      	movs	r2, #61	; 0x3d
 800300e:	2101      	movs	r1, #1
 8003010:	5499      	strb	r1, [r3, r2]

  __HAL_UNLOCK(htim);
 8003012:	687b      	ldr	r3, [r7, #4]
 8003014:	223c      	movs	r2, #60	; 0x3c
 8003016:	2100      	movs	r1, #0
 8003018:	5499      	strb	r1, [r3, r2]

  return HAL_OK;
 800301a:	2300      	movs	r3, #0
}
 800301c:	0018      	movs	r0, r3
 800301e:	46bd      	mov	sp, r7
 8003020:	b004      	add	sp, #16
 8003022:	bd80      	pop	{r7, pc}
 8003024:	ffceff88 	.word	0xffceff88
 8003028:	ffff00ff 	.word	0xffff00ff

0800302c <TIM_Base_SetConfig>:
  * @param  TIMx TIM peripheral
  * @param  Structure TIM Base configuration structure
  * @retval None
  */
void TIM_Base_SetConfig(TIM_TypeDef *TIMx, TIM_Base_InitTypeDef *Structure)
{
 800302c:	b580      	push	{r7, lr}
 800302e:	b084      	sub	sp, #16
 8003030:	af00      	add	r7, sp, #0
 8003032:	6078      	str	r0, [r7, #4]
 8003034:	6039      	str	r1, [r7, #0]
  uint32_t tmpcr1;
  tmpcr1 = TIMx->CR1;
 8003036:	687b      	ldr	r3, [r7, #4]
 8003038:	681b      	ldr	r3, [r3, #0]
 800303a:	60fb      	str	r3, [r7, #12]

  /* Set TIM Time Base Unit parameters ---------------------------------------*/
  if (IS_TIM_COUNTER_MODE_SELECT_INSTANCE(TIMx))
 800303c:	687b      	ldr	r3, [r7, #4]
 800303e:	4a38      	ldr	r2, [pc, #224]	; (8003120 <TIM_Base_SetConfig+0xf4>)
 8003040:	4293      	cmp	r3, r2
 8003042:	d00c      	beq.n	800305e <TIM_Base_SetConfig+0x32>
 8003044:	687a      	ldr	r2, [r7, #4]
 8003046:	2380      	movs	r3, #128	; 0x80
 8003048:	05db      	lsls	r3, r3, #23
 800304a:	429a      	cmp	r2, r3
 800304c:	d007      	beq.n	800305e <TIM_Base_SetConfig+0x32>
 800304e:	687b      	ldr	r3, [r7, #4]
 8003050:	4a34      	ldr	r2, [pc, #208]	; (8003124 <TIM_Base_SetConfig+0xf8>)
 8003052:	4293      	cmp	r3, r2
 8003054:	d003      	beq.n	800305e <TIM_Base_SetConfig+0x32>
 8003056:	687b      	ldr	r3, [r7, #4]
 8003058:	4a33      	ldr	r2, [pc, #204]	; (8003128 <TIM_Base_SetConfig+0xfc>)
 800305a:	4293      	cmp	r3, r2
 800305c:	d108      	bne.n	8003070 <TIM_Base_SetConfig+0x44>
  {
    /* Select the Counter Mode */
    tmpcr1 &= ~(TIM_CR1_DIR | TIM_CR1_CMS);
 800305e:	68fb      	ldr	r3, [r7, #12]
 8003060:	2270      	movs	r2, #112	; 0x70
 8003062:	4393      	bics	r3, r2
 8003064:	60fb      	str	r3, [r7, #12]
    tmpcr1 |= Structure->CounterMode;
 8003066:	683b      	ldr	r3, [r7, #0]
 8003068:	685b      	ldr	r3, [r3, #4]
 800306a:	68fa      	ldr	r2, [r7, #12]
 800306c:	4313      	orrs	r3, r2
 800306e:	60fb      	str	r3, [r7, #12]
  }

  if (IS_TIM_CLOCK_DIVISION_INSTANCE(TIMx))
 8003070:	687b      	ldr	r3, [r7, #4]
 8003072:	4a2b      	ldr	r2, [pc, #172]	; (8003120 <TIM_Base_SetConfig+0xf4>)
 8003074:	4293      	cmp	r3, r2
 8003076:	d01c      	beq.n	80030b2 <TIM_Base_SetConfig+0x86>
 8003078:	687a      	ldr	r2, [r7, #4]
 800307a:	2380      	movs	r3, #128	; 0x80
 800307c:	05db      	lsls	r3, r3, #23
 800307e:	429a      	cmp	r2, r3
 8003080:	d017      	beq.n	80030b2 <TIM_Base_SetConfig+0x86>
 8003082:	687b      	ldr	r3, [r7, #4]
 8003084:	4a27      	ldr	r2, [pc, #156]	; (8003124 <TIM_Base_SetConfig+0xf8>)
 8003086:	4293      	cmp	r3, r2
 8003088:	d013      	beq.n	80030b2 <TIM_Base_SetConfig+0x86>
 800308a:	687b      	ldr	r3, [r7, #4]
 800308c:	4a26      	ldr	r2, [pc, #152]	; (8003128 <TIM_Base_SetConfig+0xfc>)
 800308e:	4293      	cmp	r3, r2
 8003090:	d00f      	beq.n	80030b2 <TIM_Base_SetConfig+0x86>
 8003092:	687b      	ldr	r3, [r7, #4]
 8003094:	4a25      	ldr	r2, [pc, #148]	; (800312c <TIM_Base_SetConfig+0x100>)
 8003096:	4293      	cmp	r3, r2
 8003098:	d00b      	beq.n	80030b2 <TIM_Base_SetConfig+0x86>
 800309a:	687b      	ldr	r3, [r7, #4]
 800309c:	4a24      	ldr	r2, [pc, #144]	; (8003130 <TIM_Base_SetConfig+0x104>)
 800309e:	4293      	cmp	r3, r2
 80030a0:	d007      	beq.n	80030b2 <TIM_Base_SetConfig+0x86>
 80030a2:	687b      	ldr	r3, [r7, #4]
 80030a4:	4a23      	ldr	r2, [pc, #140]	; (8003134 <TIM_Base_SetConfig+0x108>)
 80030a6:	4293      	cmp	r3, r2
 80030a8:	d003      	beq.n	80030b2 <TIM_Base_SetConfig+0x86>
 80030aa:	687b      	ldr	r3, [r7, #4]
 80030ac:	4a22      	ldr	r2, [pc, #136]	; (8003138 <TIM_Base_SetConfig+0x10c>)
 80030ae:	4293      	cmp	r3, r2
 80030b0:	d108      	bne.n	80030c4 <TIM_Base_SetConfig+0x98>
  {
    /* Set the clock division */
    tmpcr1 &= ~TIM_CR1_CKD;
 80030b2:	68fb      	ldr	r3, [r7, #12]
 80030b4:	4a21      	ldr	r2, [pc, #132]	; (800313c <TIM_Base_SetConfig+0x110>)
 80030b6:	4013      	ands	r3, r2
 80030b8:	60fb      	str	r3, [r7, #12]
    tmpcr1 |= (uint32_t)Structure->ClockDivision;
 80030ba:	683b      	ldr	r3, [r7, #0]
 80030bc:	68db      	ldr	r3, [r3, #12]
 80030be:	68fa      	ldr	r2, [r7, #12]
 80030c0:	4313      	orrs	r3, r2
 80030c2:	60fb      	str	r3, [r7, #12]
  }

  /* Set the auto-reload preload */
  MODIFY_REG(tmpcr1, TIM_CR1_ARPE, Structure->AutoReloadPreload);
 80030c4:	68fb      	ldr	r3, [r7, #12]
 80030c6:	2280      	movs	r2, #128	; 0x80
 80030c8:	4393      	bics	r3, r2
 80030ca:	001a      	movs	r2, r3
 80030cc:	683b      	ldr	r3, [r7, #0]
 80030ce:	695b      	ldr	r3, [r3, #20]
 80030d0:	4313      	orrs	r3, r2
 80030d2:	60fb      	str	r3, [r7, #12]

  TIMx->CR1 = tmpcr1;
 80030d4:	687b      	ldr	r3, [r7, #4]
 80030d6:	68fa      	ldr	r2, [r7, #12]
 80030d8:	601a      	str	r2, [r3, #0]

  /* Set the Autoreload value */
  TIMx->ARR = (uint32_t)Structure->Period ;
 80030da:	683b      	ldr	r3, [r7, #0]
 80030dc:	689a      	ldr	r2, [r3, #8]
 80030de:	687b      	ldr	r3, [r7, #4]
 80030e0:	62da      	str	r2, [r3, #44]	; 0x2c

  /* Set the Prescaler value */
  TIMx->PSC = Structure->Prescaler;
 80030e2:	683b      	ldr	r3, [r7, #0]
 80030e4:	681a      	ldr	r2, [r3, #0]
 80030e6:	687b      	ldr	r3, [r7, #4]
 80030e8:	629a      	str	r2, [r3, #40]	; 0x28

  if (IS_TIM_REPETITION_COUNTER_INSTANCE(TIMx))
 80030ea:	687b      	ldr	r3, [r7, #4]
 80030ec:	4a0c      	ldr	r2, [pc, #48]	; (8003120 <TIM_Base_SetConfig+0xf4>)
 80030ee:	4293      	cmp	r3, r2
 80030f0:	d00b      	beq.n	800310a <TIM_Base_SetConfig+0xde>
 80030f2:	687b      	ldr	r3, [r7, #4]
 80030f4:	4a0e      	ldr	r2, [pc, #56]	; (8003130 <TIM_Base_SetConfig+0x104>)
 80030f6:	4293      	cmp	r3, r2
 80030f8:	d007      	beq.n	800310a <TIM_Base_SetConfig+0xde>
 80030fa:	687b      	ldr	r3, [r7, #4]
 80030fc:	4a0d      	ldr	r2, [pc, #52]	; (8003134 <TIM_Base_SetConfig+0x108>)
 80030fe:	4293      	cmp	r3, r2
 8003100:	d003      	beq.n	800310a <TIM_Base_SetConfig+0xde>
 8003102:	687b      	ldr	r3, [r7, #4]
 8003104:	4a0c      	ldr	r2, [pc, #48]	; (8003138 <TIM_Base_SetConfig+0x10c>)
 8003106:	4293      	cmp	r3, r2
 8003108:	d103      	bne.n	8003112 <TIM_Base_SetConfig+0xe6>
  {
    /* Set the Repetition Counter value */
    TIMx->RCR = Structure->RepetitionCounter;
 800310a:	683b      	ldr	r3, [r7, #0]
 800310c:	691a      	ldr	r2, [r3, #16]
 800310e:	687b      	ldr	r3, [r7, #4]
 8003110:	631a      	str	r2, [r3, #48]	; 0x30
  }

  /* Generate an update event to reload the Prescaler
     and the repetition counter (only for advanced timer) value immediately */
  TIMx->EGR = TIM_EGR_UG;
 8003112:	687b      	ldr	r3, [r7, #4]
 8003114:	2201      	movs	r2, #1
 8003116:	615a      	str	r2, [r3, #20]
}
 8003118:	46c0      	nop			; (mov r8, r8)
 800311a:	46bd      	mov	sp, r7
 800311c:	b004      	add	sp, #16
 800311e:	bd80      	pop	{r7, pc}
 8003120:	40012c00 	.word	0x40012c00
 8003124:	40000400 	.word	0x40000400
 8003128:	40000800 	.word	0x40000800
 800312c:	40002000 	.word	0x40002000
 8003130:	40014000 	.word	0x40014000
 8003134:	40014400 	.word	0x40014400
 8003138:	40014800 	.word	0x40014800
 800313c:	fffffcff 	.word	0xfffffcff

08003140 <TIM_OC1_SetConfig>:
  * @param  TIMx to select the TIM peripheral
  * @param  OC_Config The output configuration structure
  * @retval None
  */
static void TIM_OC1_SetConfig(TIM_TypeDef *TIMx, TIM_OC_InitTypeDef *OC_Config)
{
 8003140:	b580      	push	{r7, lr}
 8003142:	b086      	sub	sp, #24
 8003144:	af00      	add	r7, sp, #0
 8003146:	6078      	str	r0, [r7, #4]
 8003148:	6039      	str	r1, [r7, #0]
  uint32_t tmpccmrx;
  uint32_t tmpccer;
  uint32_t tmpcr2;

  /* Disable the Channel 1: Reset the CC1E Bit */
  TIMx->CCER &= ~TIM_CCER_CC1E;
 800314a:	687b      	ldr	r3, [r7, #4]
 800314c:	6a1b      	ldr	r3, [r3, #32]
 800314e:	2201      	movs	r2, #1
 8003150:	4393      	bics	r3, r2
 8003152:	001a      	movs	r2, r3
 8003154:	687b      	ldr	r3, [r7, #4]
 8003156:	621a      	str	r2, [r3, #32]

  /* Get the TIMx CCER register value */
  tmpccer = TIMx->CCER;
 8003158:	687b      	ldr	r3, [r7, #4]
 800315a:	6a1b      	ldr	r3, [r3, #32]
 800315c:	617b      	str	r3, [r7, #20]
  /* Get the TIMx CR2 register value */
  tmpcr2 =  TIMx->CR2;
 800315e:	687b      	ldr	r3, [r7, #4]
 8003160:	685b      	ldr	r3, [r3, #4]
 8003162:	613b      	str	r3, [r7, #16]

  /* Get the TIMx CCMR1 register value */
  tmpccmrx = TIMx->CCMR1;
 8003164:	687b      	ldr	r3, [r7, #4]
 8003166:	699b      	ldr	r3, [r3, #24]
 8003168:	60fb      	str	r3, [r7, #12]

  /* Reset the Output Compare Mode Bits */
  tmpccmrx &= ~TIM_CCMR1_OC1M;
 800316a:	68fb      	ldr	r3, [r7, #12]
 800316c:	4a32      	ldr	r2, [pc, #200]	; (8003238 <TIM_OC1_SetConfig+0xf8>)
 800316e:	4013      	ands	r3, r2
 8003170:	60fb      	str	r3, [r7, #12]
  tmpccmrx &= ~TIM_CCMR1_CC1S;
 8003172:	68fb      	ldr	r3, [r7, #12]
 8003174:	2203      	movs	r2, #3
 8003176:	4393      	bics	r3, r2
 8003178:	60fb      	str	r3, [r7, #12]
  /* Select the Output Compare Mode */
  tmpccmrx |= OC_Config->OCMode;
 800317a:	683b      	ldr	r3, [r7, #0]
 800317c:	681b      	ldr	r3, [r3, #0]
 800317e:	68fa      	ldr	r2, [r7, #12]
 8003180:	4313      	orrs	r3, r2
 8003182:	60fb      	str	r3, [r7, #12]

  /* Reset the Output Polarity level */
  tmpccer &= ~TIM_CCER_CC1P;
 8003184:	697b      	ldr	r3, [r7, #20]
 8003186:	2202      	movs	r2, #2
 8003188:	4393      	bics	r3, r2
 800318a:	617b      	str	r3, [r7, #20]
  /* Set the Output Compare Polarity */
  tmpccer |= OC_Config->OCPolarity;
 800318c:	683b      	ldr	r3, [r7, #0]
 800318e:	689b      	ldr	r3, [r3, #8]
 8003190:	697a      	ldr	r2, [r7, #20]
 8003192:	4313      	orrs	r3, r2
 8003194:	617b      	str	r3, [r7, #20]

  if (IS_TIM_CCXN_INSTANCE(TIMx, TIM_CHANNEL_1))
 8003196:	687b      	ldr	r3, [r7, #4]
 8003198:	4a28      	ldr	r2, [pc, #160]	; (800323c <TIM_OC1_SetConfig+0xfc>)
 800319a:	4293      	cmp	r3, r2
 800319c:	d00b      	beq.n	80031b6 <TIM_OC1_SetConfig+0x76>
 800319e:	687b      	ldr	r3, [r7, #4]
 80031a0:	4a27      	ldr	r2, [pc, #156]	; (8003240 <TIM_OC1_SetConfig+0x100>)
 80031a2:	4293      	cmp	r3, r2
 80031a4:	d007      	beq.n	80031b6 <TIM_OC1_SetConfig+0x76>
 80031a6:	687b      	ldr	r3, [r7, #4]
 80031a8:	4a26      	ldr	r2, [pc, #152]	; (8003244 <TIM_OC1_SetConfig+0x104>)
 80031aa:	4293      	cmp	r3, r2
 80031ac:	d003      	beq.n	80031b6 <TIM_OC1_SetConfig+0x76>
 80031ae:	687b      	ldr	r3, [r7, #4]
 80031b0:	4a25      	ldr	r2, [pc, #148]	; (8003248 <TIM_OC1_SetConfig+0x108>)
 80031b2:	4293      	cmp	r3, r2
 80031b4:	d10c      	bne.n	80031d0 <TIM_OC1_SetConfig+0x90>
  {
    /* Check parameters */
    assert_param(IS_TIM_OCN_POLARITY(OC_Config->OCNPolarity));

    /* Reset the Output N Polarity level */
    tmpccer &= ~TIM_CCER_CC1NP;
 80031b6:	697b      	ldr	r3, [r7, #20]
 80031b8:	2208      	movs	r2, #8
 80031ba:	4393      	bics	r3, r2
 80031bc:	617b      	str	r3, [r7, #20]
    /* Set the Output N Polarity */
    tmpccer |= OC_Config->OCNPolarity;
 80031be:	683b      	ldr	r3, [r7, #0]
 80031c0:	68db      	ldr	r3, [r3, #12]
 80031c2:	697a      	ldr	r2, [r7, #20]
 80031c4:	4313      	orrs	r3, r2
 80031c6:	617b      	str	r3, [r7, #20]
    /* Reset the Output N State */
    tmpccer &= ~TIM_CCER_CC1NE;
 80031c8:	697b      	ldr	r3, [r7, #20]
 80031ca:	2204      	movs	r2, #4
 80031cc:	4393      	bics	r3, r2
 80031ce:	617b      	str	r3, [r7, #20]
  }

  if (IS_TIM_BREAK_INSTANCE(TIMx))
 80031d0:	687b      	ldr	r3, [r7, #4]
 80031d2:	4a1a      	ldr	r2, [pc, #104]	; (800323c <TIM_OC1_SetConfig+0xfc>)
 80031d4:	4293      	cmp	r3, r2
 80031d6:	d00b      	beq.n	80031f0 <TIM_OC1_SetConfig+0xb0>
 80031d8:	687b      	ldr	r3, [r7, #4]
 80031da:	4a19      	ldr	r2, [pc, #100]	; (8003240 <TIM_OC1_SetConfig+0x100>)
 80031dc:	4293      	cmp	r3, r2
 80031de:	d007      	beq.n	80031f0 <TIM_OC1_SetConfig+0xb0>
 80031e0:	687b      	ldr	r3, [r7, #4]
 80031e2:	4a18      	ldr	r2, [pc, #96]	; (8003244 <TIM_OC1_SetConfig+0x104>)
 80031e4:	4293      	cmp	r3, r2
 80031e6:	d003      	beq.n	80031f0 <TIM_OC1_SetConfig+0xb0>
 80031e8:	687b      	ldr	r3, [r7, #4]
 80031ea:	4a17      	ldr	r2, [pc, #92]	; (8003248 <TIM_OC1_SetConfig+0x108>)
 80031ec:	4293      	cmp	r3, r2
 80031ee:	d111      	bne.n	8003214 <TIM_OC1_SetConfig+0xd4>
    /* Check parameters */
    assert_param(IS_TIM_OCNIDLE_STATE(OC_Config->OCNIdleState));
    assert_param(IS_TIM_OCIDLE_STATE(OC_Config->OCIdleState));

    /* Reset the Output Compare and Output Compare N IDLE State */
    tmpcr2 &= ~TIM_CR2_OIS1;
 80031f0:	693b      	ldr	r3, [r7, #16]
 80031f2:	4a16      	ldr	r2, [pc, #88]	; (800324c <TIM_OC1_SetConfig+0x10c>)
 80031f4:	4013      	ands	r3, r2
 80031f6:	613b      	str	r3, [r7, #16]
    tmpcr2 &= ~TIM_CR2_OIS1N;
 80031f8:	693b      	ldr	r3, [r7, #16]
 80031fa:	4a15      	ldr	r2, [pc, #84]	; (8003250 <TIM_OC1_SetConfig+0x110>)
 80031fc:	4013      	ands	r3, r2
 80031fe:	613b      	str	r3, [r7, #16]
    /* Set the Output Idle state */
    tmpcr2 |= OC_Config->OCIdleState;
 8003200:	683b      	ldr	r3, [r7, #0]
 8003202:	695b      	ldr	r3, [r3, #20]
 8003204:	693a      	ldr	r2, [r7, #16]
 8003206:	4313      	orrs	r3, r2
 8003208:	613b      	str	r3, [r7, #16]
    /* Set the Output N Idle state */
    tmpcr2 |= OC_Config->OCNIdleState;
 800320a:	683b      	ldr	r3, [r7, #0]
 800320c:	699b      	ldr	r3, [r3, #24]
 800320e:	693a      	ldr	r2, [r7, #16]
 8003210:	4313      	orrs	r3, r2
 8003212:	613b      	str	r3, [r7, #16]
  }

  /* Write to TIMx CR2 */
  TIMx->CR2 = tmpcr2;
 8003214:	687b      	ldr	r3, [r7, #4]
 8003216:	693a      	ldr	r2, [r7, #16]
 8003218:	605a      	str	r2, [r3, #4]

  /* Write to TIMx CCMR1 */
  TIMx->CCMR1 = tmpccmrx;
 800321a:	687b      	ldr	r3, [r7, #4]
 800321c:	68fa      	ldr	r2, [r7, #12]
 800321e:	619a      	str	r2, [r3, #24]

  /* Set the Capture Compare Register value */
  TIMx->CCR1 = OC_Config->Pulse;
 8003220:	683b      	ldr	r3, [r7, #0]
 8003222:	685a      	ldr	r2, [r3, #4]
 8003224:	687b      	ldr	r3, [r7, #4]
 8003226:	635a      	str	r2, [r3, #52]	; 0x34

  /* Write to TIMx CCER */
  TIMx->CCER = tmpccer;
 8003228:	687b      	ldr	r3, [r7, #4]
 800322a:	697a      	ldr	r2, [r7, #20]
 800322c:	621a      	str	r2, [r3, #32]
}
 800322e:	46c0      	nop			; (mov r8, r8)
 8003230:	46bd      	mov	sp, r7
 8003232:	b006      	add	sp, #24
 8003234:	bd80      	pop	{r7, pc}
 8003236:	46c0      	nop			; (mov r8, r8)
 8003238:	fffeff8f 	.word	0xfffeff8f
 800323c:	40012c00 	.word	0x40012c00
 8003240:	40014000 	.word	0x40014000
 8003244:	40014400 	.word	0x40014400
 8003248:	40014800 	.word	0x40014800
 800324c:	fffffeff 	.word	0xfffffeff
 8003250:	fffffdff 	.word	0xfffffdff

08003254 <TIM_OC2_SetConfig>:
  * @param  TIMx to select the TIM peripheral
  * @param  OC_Config The output configuration structure
  * @retval None
  */
void TIM_OC2_SetConfig(TIM_TypeDef *TIMx, TIM_OC_InitTypeDef *OC_Config)
{
 8003254:	b580      	push	{r7, lr}
 8003256:	b086      	sub	sp, #24
 8003258:	af00      	add	r7, sp, #0
 800325a:	6078      	str	r0, [r7, #4]
 800325c:	6039      	str	r1, [r7, #0]
  uint32_t tmpccmrx;
  uint32_t tmpccer;
  uint32_t tmpcr2;

  /* Disable the Channel 2: Reset the CC2E Bit */
  TIMx->CCER &= ~TIM_CCER_CC2E;
 800325e:	687b      	ldr	r3, [r7, #4]
 8003260:	6a1b      	ldr	r3, [r3, #32]
 8003262:	2210      	movs	r2, #16
 8003264:	4393      	bics	r3, r2
 8003266:	001a      	movs	r2, r3
 8003268:	687b      	ldr	r3, [r7, #4]
 800326a:	621a      	str	r2, [r3, #32]

  /* Get the TIMx CCER register value */
  tmpccer = TIMx->CCER;
 800326c:	687b      	ldr	r3, [r7, #4]
 800326e:	6a1b      	ldr	r3, [r3, #32]
 8003270:	617b      	str	r3, [r7, #20]
  /* Get the TIMx CR2 register value */
  tmpcr2 =  TIMx->CR2;
 8003272:	687b      	ldr	r3, [r7, #4]
 8003274:	685b      	ldr	r3, [r3, #4]
 8003276:	613b      	str	r3, [r7, #16]

  /* Get the TIMx CCMR1 register value */
  tmpccmrx = TIMx->CCMR1;
 8003278:	687b      	ldr	r3, [r7, #4]
 800327a:	699b      	ldr	r3, [r3, #24]
 800327c:	60fb      	str	r3, [r7, #12]

  /* Reset the Output Compare mode and Capture/Compare selection Bits */
  tmpccmrx &= ~TIM_CCMR1_OC2M;
 800327e:	68fb      	ldr	r3, [r7, #12]
 8003280:	4a2e      	ldr	r2, [pc, #184]	; (800333c <TIM_OC2_SetConfig+0xe8>)
 8003282:	4013      	ands	r3, r2
 8003284:	60fb      	str	r3, [r7, #12]
  tmpccmrx &= ~TIM_CCMR1_CC2S;
 8003286:	68fb      	ldr	r3, [r7, #12]
 8003288:	4a2d      	ldr	r2, [pc, #180]	; (8003340 <TIM_OC2_SetConfig+0xec>)
 800328a:	4013      	ands	r3, r2
 800328c:	60fb      	str	r3, [r7, #12]

  /* Select the Output Compare Mode */
  tmpccmrx |= (OC_Config->OCMode << 8U);
 800328e:	683b      	ldr	r3, [r7, #0]
 8003290:	681b      	ldr	r3, [r3, #0]
 8003292:	021b      	lsls	r3, r3, #8
 8003294:	68fa      	ldr	r2, [r7, #12]
 8003296:	4313      	orrs	r3, r2
 8003298:	60fb      	str	r3, [r7, #12]

  /* Reset the Output Polarity level */
  tmpccer &= ~TIM_CCER_CC2P;
 800329a:	697b      	ldr	r3, [r7, #20]
 800329c:	2220      	movs	r2, #32
 800329e:	4393      	bics	r3, r2
 80032a0:	617b      	str	r3, [r7, #20]
  /* Set the Output Compare Polarity */
  tmpccer |= (OC_Config->OCPolarity << 4U);
 80032a2:	683b      	ldr	r3, [r7, #0]
 80032a4:	689b      	ldr	r3, [r3, #8]
 80032a6:	011b      	lsls	r3, r3, #4
 80032a8:	697a      	ldr	r2, [r7, #20]
 80032aa:	4313      	orrs	r3, r2
 80032ac:	617b      	str	r3, [r7, #20]

  if (IS_TIM_CCXN_INSTANCE(TIMx, TIM_CHANNEL_2))
 80032ae:	687b      	ldr	r3, [r7, #4]
 80032b0:	4a24      	ldr	r2, [pc, #144]	; (8003344 <TIM_OC2_SetConfig+0xf0>)
 80032b2:	4293      	cmp	r3, r2
 80032b4:	d10d      	bne.n	80032d2 <TIM_OC2_SetConfig+0x7e>
  {
    assert_param(IS_TIM_OCN_POLARITY(OC_Config->OCNPolarity));

    /* Reset the Output N Polarity level */
    tmpccer &= ~TIM_CCER_CC2NP;
 80032b6:	697b      	ldr	r3, [r7, #20]
 80032b8:	2280      	movs	r2, #128	; 0x80
 80032ba:	4393      	bics	r3, r2
 80032bc:	617b      	str	r3, [r7, #20]
    /* Set the Output N Polarity */
    tmpccer |= (OC_Config->OCNPolarity << 4U);
 80032be:	683b      	ldr	r3, [r7, #0]
 80032c0:	68db      	ldr	r3, [r3, #12]
 80032c2:	011b      	lsls	r3, r3, #4
 80032c4:	697a      	ldr	r2, [r7, #20]
 80032c6:	4313      	orrs	r3, r2
 80032c8:	617b      	str	r3, [r7, #20]
    /* Reset the Output N State */
    tmpccer &= ~TIM_CCER_CC2NE;
 80032ca:	697b      	ldr	r3, [r7, #20]
 80032cc:	2240      	movs	r2, #64	; 0x40
 80032ce:	4393      	bics	r3, r2
 80032d0:	617b      	str	r3, [r7, #20]

  }

  if (IS_TIM_BREAK_INSTANCE(TIMx))
 80032d2:	687b      	ldr	r3, [r7, #4]
 80032d4:	4a1b      	ldr	r2, [pc, #108]	; (8003344 <TIM_OC2_SetConfig+0xf0>)
 80032d6:	4293      	cmp	r3, r2
 80032d8:	d00b      	beq.n	80032f2 <TIM_OC2_SetConfig+0x9e>
 80032da:	687b      	ldr	r3, [r7, #4]
 80032dc:	4a1a      	ldr	r2, [pc, #104]	; (8003348 <TIM_OC2_SetConfig+0xf4>)
 80032de:	4293      	cmp	r3, r2
 80032e0:	d007      	beq.n	80032f2 <TIM_OC2_SetConfig+0x9e>
 80032e2:	687b      	ldr	r3, [r7, #4]
 80032e4:	4a19      	ldr	r2, [pc, #100]	; (800334c <TIM_OC2_SetConfig+0xf8>)
 80032e6:	4293      	cmp	r3, r2
 80032e8:	d003      	beq.n	80032f2 <TIM_OC2_SetConfig+0x9e>
 80032ea:	687b      	ldr	r3, [r7, #4]
 80032ec:	4a18      	ldr	r2, [pc, #96]	; (8003350 <TIM_OC2_SetConfig+0xfc>)
 80032ee:	4293      	cmp	r3, r2
 80032f0:	d113      	bne.n	800331a <TIM_OC2_SetConfig+0xc6>
    /* Check parameters */
    assert_param(IS_TIM_OCNIDLE_STATE(OC_Config->OCNIdleState));
    assert_param(IS_TIM_OCIDLE_STATE(OC_Config->OCIdleState));

    /* Reset the Output Compare and Output Compare N IDLE State */
    tmpcr2 &= ~TIM_CR2_OIS2;
 80032f2:	693b      	ldr	r3, [r7, #16]
 80032f4:	4a17      	ldr	r2, [pc, #92]	; (8003354 <TIM_OC2_SetConfig+0x100>)
 80032f6:	4013      	ands	r3, r2
 80032f8:	613b      	str	r3, [r7, #16]
    tmpcr2 &= ~TIM_CR2_OIS2N;
 80032fa:	693b      	ldr	r3, [r7, #16]
 80032fc:	4a16      	ldr	r2, [pc, #88]	; (8003358 <TIM_OC2_SetConfig+0x104>)
 80032fe:	4013      	ands	r3, r2
 8003300:	613b      	str	r3, [r7, #16]
    /* Set the Output Idle state */
    tmpcr2 |= (OC_Config->OCIdleState << 2U);
 8003302:	683b      	ldr	r3, [r7, #0]
 8003304:	695b      	ldr	r3, [r3, #20]
 8003306:	009b      	lsls	r3, r3, #2
 8003308:	693a      	ldr	r2, [r7, #16]
 800330a:	4313      	orrs	r3, r2
 800330c:	613b      	str	r3, [r7, #16]
    /* Set the Output N Idle state */
    tmpcr2 |= (OC_Config->OCNIdleState << 2U);
 800330e:	683b      	ldr	r3, [r7, #0]
 8003310:	699b      	ldr	r3, [r3, #24]
 8003312:	009b      	lsls	r3, r3, #2
 8003314:	693a      	ldr	r2, [r7, #16]
 8003316:	4313      	orrs	r3, r2
 8003318:	613b      	str	r3, [r7, #16]
  }

  /* Write to TIMx CR2 */
  TIMx->CR2 = tmpcr2;
 800331a:	687b      	ldr	r3, [r7, #4]
 800331c:	693a      	ldr	r2, [r7, #16]
 800331e:	605a      	str	r2, [r3, #4]

  /* Write to TIMx CCMR1 */
  TIMx->CCMR1 = tmpccmrx;
 8003320:	687b      	ldr	r3, [r7, #4]
 8003322:	68fa      	ldr	r2, [r7, #12]
 8003324:	619a      	str	r2, [r3, #24]

  /* Set the Capture Compare Register value */
  TIMx->CCR2 = OC_Config->Pulse;
 8003326:	683b      	ldr	r3, [r7, #0]
 8003328:	685a      	ldr	r2, [r3, #4]
 800332a:	687b      	ldr	r3, [r7, #4]
 800332c:	639a      	str	r2, [r3, #56]	; 0x38

  /* Write to TIMx CCER */
  TIMx->CCER = tmpccer;
 800332e:	687b      	ldr	r3, [r7, #4]
 8003330:	697a      	ldr	r2, [r7, #20]
 8003332:	621a      	str	r2, [r3, #32]
}
 8003334:	46c0      	nop			; (mov r8, r8)
 8003336:	46bd      	mov	sp, r7
 8003338:	b006      	add	sp, #24
 800333a:	bd80      	pop	{r7, pc}
 800333c:	feff8fff 	.word	0xfeff8fff
 8003340:	fffffcff 	.word	0xfffffcff
 8003344:	40012c00 	.word	0x40012c00
 8003348:	40014000 	.word	0x40014000
 800334c:	40014400 	.word	0x40014400
 8003350:	40014800 	.word	0x40014800
 8003354:	fffffbff 	.word	0xfffffbff
 8003358:	fffff7ff 	.word	0xfffff7ff

0800335c <TIM_OC3_SetConfig>:
  * @param  TIMx to select the TIM peripheral
  * @param  OC_Config The output configuration structure
  * @retval None
  */
static void TIM_OC3_SetConfig(TIM_TypeDef *TIMx, TIM_OC_InitTypeDef *OC_Config)
{
 800335c:	b580      	push	{r7, lr}
 800335e:	b086      	sub	sp, #24
 8003360:	af00      	add	r7, sp, #0
 8003362:	6078      	str	r0, [r7, #4]
 8003364:	6039      	str	r1, [r7, #0]
  uint32_t tmpccmrx;
  uint32_t tmpccer;
  uint32_t tmpcr2;

  /* Disable the Channel 3: Reset the CC2E Bit */
  TIMx->CCER &= ~TIM_CCER_CC3E;
 8003366:	687b      	ldr	r3, [r7, #4]
 8003368:	6a1b      	ldr	r3, [r3, #32]
 800336a:	4a35      	ldr	r2, [pc, #212]	; (8003440 <TIM_OC3_SetConfig+0xe4>)
 800336c:	401a      	ands	r2, r3
 800336e:	687b      	ldr	r3, [r7, #4]
 8003370:	621a      	str	r2, [r3, #32]

  /* Get the TIMx CCER register value */
  tmpccer = TIMx->CCER;
 8003372:	687b      	ldr	r3, [r7, #4]
 8003374:	6a1b      	ldr	r3, [r3, #32]
 8003376:	617b      	str	r3, [r7, #20]
  /* Get the TIMx CR2 register value */
  tmpcr2 =  TIMx->CR2;
 8003378:	687b      	ldr	r3, [r7, #4]
 800337a:	685b      	ldr	r3, [r3, #4]
 800337c:	613b      	str	r3, [r7, #16]

  /* Get the TIMx CCMR2 register value */
  tmpccmrx = TIMx->CCMR2;
 800337e:	687b      	ldr	r3, [r7, #4]
 8003380:	69db      	ldr	r3, [r3, #28]
 8003382:	60fb      	str	r3, [r7, #12]

  /* Reset the Output Compare mode and Capture/Compare selection Bits */
  tmpccmrx &= ~TIM_CCMR2_OC3M;
 8003384:	68fb      	ldr	r3, [r7, #12]
 8003386:	4a2f      	ldr	r2, [pc, #188]	; (8003444 <TIM_OC3_SetConfig+0xe8>)
 8003388:	4013      	ands	r3, r2
 800338a:	60fb      	str	r3, [r7, #12]
  tmpccmrx &= ~TIM_CCMR2_CC3S;
 800338c:	68fb      	ldr	r3, [r7, #12]
 800338e:	2203      	movs	r2, #3
 8003390:	4393      	bics	r3, r2
 8003392:	60fb      	str	r3, [r7, #12]
  /* Select the Output Compare Mode */
  tmpccmrx |= OC_Config->OCMode;
 8003394:	683b      	ldr	r3, [r7, #0]
 8003396:	681b      	ldr	r3, [r3, #0]
 8003398:	68fa      	ldr	r2, [r7, #12]
 800339a:	4313      	orrs	r3, r2
 800339c:	60fb      	str	r3, [r7, #12]

  /* Reset the Output Polarity level */
  tmpccer &= ~TIM_CCER_CC3P;
 800339e:	697b      	ldr	r3, [r7, #20]
 80033a0:	4a29      	ldr	r2, [pc, #164]	; (8003448 <TIM_OC3_SetConfig+0xec>)
 80033a2:	4013      	ands	r3, r2
 80033a4:	617b      	str	r3, [r7, #20]
  /* Set the Output Compare Polarity */
  tmpccer |= (OC_Config->OCPolarity << 8U);
 80033a6:	683b      	ldr	r3, [r7, #0]
 80033a8:	689b      	ldr	r3, [r3, #8]
 80033aa:	021b      	lsls	r3, r3, #8
 80033ac:	697a      	ldr	r2, [r7, #20]
 80033ae:	4313      	orrs	r3, r2
 80033b0:	617b      	str	r3, [r7, #20]

  if (IS_TIM_CCXN_INSTANCE(TIMx, TIM_CHANNEL_3))
 80033b2:	687b      	ldr	r3, [r7, #4]
 80033b4:	4a25      	ldr	r2, [pc, #148]	; (800344c <TIM_OC3_SetConfig+0xf0>)
 80033b6:	4293      	cmp	r3, r2
 80033b8:	d10d      	bne.n	80033d6 <TIM_OC3_SetConfig+0x7a>
  {
    assert_param(IS_TIM_OCN_POLARITY(OC_Config->OCNPolarity));

    /* Reset the Output N Polarity level */
    tmpccer &= ~TIM_CCER_CC3NP;
 80033ba:	697b      	ldr	r3, [r7, #20]
 80033bc:	4a24      	ldr	r2, [pc, #144]	; (8003450 <TIM_OC3_SetConfig+0xf4>)
 80033be:	4013      	ands	r3, r2
 80033c0:	617b      	str	r3, [r7, #20]
    /* Set the Output N Polarity */
    tmpccer |= (OC_Config->OCNPolarity << 8U);
 80033c2:	683b      	ldr	r3, [r7, #0]
 80033c4:	68db      	ldr	r3, [r3, #12]
 80033c6:	021b      	lsls	r3, r3, #8
 80033c8:	697a      	ldr	r2, [r7, #20]
 80033ca:	4313      	orrs	r3, r2
 80033cc:	617b      	str	r3, [r7, #20]
    /* Reset the Output N State */
    tmpccer &= ~TIM_CCER_CC3NE;
 80033ce:	697b      	ldr	r3, [r7, #20]
 80033d0:	4a20      	ldr	r2, [pc, #128]	; (8003454 <TIM_OC3_SetConfig+0xf8>)
 80033d2:	4013      	ands	r3, r2
 80033d4:	617b      	str	r3, [r7, #20]
  }

  if (IS_TIM_BREAK_INSTANCE(TIMx))
 80033d6:	687b      	ldr	r3, [r7, #4]
 80033d8:	4a1c      	ldr	r2, [pc, #112]	; (800344c <TIM_OC3_SetConfig+0xf0>)
 80033da:	4293      	cmp	r3, r2
 80033dc:	d00b      	beq.n	80033f6 <TIM_OC3_SetConfig+0x9a>
 80033de:	687b      	ldr	r3, [r7, #4]
 80033e0:	4a1d      	ldr	r2, [pc, #116]	; (8003458 <TIM_OC3_SetConfig+0xfc>)
 80033e2:	4293      	cmp	r3, r2
 80033e4:	d007      	beq.n	80033f6 <TIM_OC3_SetConfig+0x9a>
 80033e6:	687b      	ldr	r3, [r7, #4]
 80033e8:	4a1c      	ldr	r2, [pc, #112]	; (800345c <TIM_OC3_SetConfig+0x100>)
 80033ea:	4293      	cmp	r3, r2
 80033ec:	d003      	beq.n	80033f6 <TIM_OC3_SetConfig+0x9a>
 80033ee:	687b      	ldr	r3, [r7, #4]
 80033f0:	4a1b      	ldr	r2, [pc, #108]	; (8003460 <TIM_OC3_SetConfig+0x104>)
 80033f2:	4293      	cmp	r3, r2
 80033f4:	d113      	bne.n	800341e <TIM_OC3_SetConfig+0xc2>
    /* Check parameters */
    assert_param(IS_TIM_OCNIDLE_STATE(OC_Config->OCNIdleState));
    assert_param(IS_TIM_OCIDLE_STATE(OC_Config->OCIdleState));

    /* Reset the Output Compare and Output Compare N IDLE State */
    tmpcr2 &= ~TIM_CR2_OIS3;
 80033f6:	693b      	ldr	r3, [r7, #16]
 80033f8:	4a1a      	ldr	r2, [pc, #104]	; (8003464 <TIM_OC3_SetConfig+0x108>)
 80033fa:	4013      	ands	r3, r2
 80033fc:	613b      	str	r3, [r7, #16]
    tmpcr2 &= ~TIM_CR2_OIS3N;
 80033fe:	693b      	ldr	r3, [r7, #16]
 8003400:	4a19      	ldr	r2, [pc, #100]	; (8003468 <TIM_OC3_SetConfig+0x10c>)
 8003402:	4013      	ands	r3, r2
 8003404:	613b      	str	r3, [r7, #16]
    /* Set the Output Idle state */
    tmpcr2 |= (OC_Config->OCIdleState << 4U);
 8003406:	683b      	ldr	r3, [r7, #0]
 8003408:	695b      	ldr	r3, [r3, #20]
 800340a:	011b      	lsls	r3, r3, #4
 800340c:	693a      	ldr	r2, [r7, #16]
 800340e:	4313      	orrs	r3, r2
 8003410:	613b      	str	r3, [r7, #16]
    /* Set the Output N Idle state */
    tmpcr2 |= (OC_Config->OCNIdleState << 4U);
 8003412:	683b      	ldr	r3, [r7, #0]
 8003414:	699b      	ldr	r3, [r3, #24]
 8003416:	011b      	lsls	r3, r3, #4
 8003418:	693a      	ldr	r2, [r7, #16]
 800341a:	4313      	orrs	r3, r2
 800341c:	613b      	str	r3, [r7, #16]
  }

  /* Write to TIMx CR2 */
  TIMx->CR2 = tmpcr2;
 800341e:	687b      	ldr	r3, [r7, #4]
 8003420:	693a      	ldr	r2, [r7, #16]
 8003422:	605a      	str	r2, [r3, #4]

  /* Write to TIMx CCMR2 */
  TIMx->CCMR2 = tmpccmrx;
 8003424:	687b      	ldr	r3, [r7, #4]
 8003426:	68fa      	ldr	r2, [r7, #12]
 8003428:	61da      	str	r2, [r3, #28]

  /* Set the Capture Compare Register value */
  TIMx->CCR3 = OC_Config->Pulse;
 800342a:	683b      	ldr	r3, [r7, #0]
 800342c:	685a      	ldr	r2, [r3, #4]
 800342e:	687b      	ldr	r3, [r7, #4]
 8003430:	63da      	str	r2, [r3, #60]	; 0x3c

  /* Write to TIMx CCER */
  TIMx->CCER = tmpccer;
 8003432:	687b      	ldr	r3, [r7, #4]
 8003434:	697a      	ldr	r2, [r7, #20]
 8003436:	621a      	str	r2, [r3, #32]
}
 8003438:	46c0      	nop			; (mov r8, r8)
 800343a:	46bd      	mov	sp, r7
 800343c:	b006      	add	sp, #24
 800343e:	bd80      	pop	{r7, pc}
 8003440:	fffffeff 	.word	0xfffffeff
 8003444:	fffeff8f 	.word	0xfffeff8f
 8003448:	fffffdff 	.word	0xfffffdff
 800344c:	40012c00 	.word	0x40012c00
 8003450:	fffff7ff 	.word	0xfffff7ff
 8003454:	fffffbff 	.word	0xfffffbff
 8003458:	40014000 	.word	0x40014000
 800345c:	40014400 	.word	0x40014400
 8003460:	40014800 	.word	0x40014800
 8003464:	ffffefff 	.word	0xffffefff
 8003468:	ffffdfff 	.word	0xffffdfff

0800346c <TIM_OC4_SetConfig>:
  * @param  TIMx to select the TIM peripheral
  * @param  OC_Config The output configuration structure
  * @retval None
  */
static void TIM_OC4_SetConfig(TIM_TypeDef *TIMx, TIM_OC_InitTypeDef *OC_Config)
{
 800346c:	b580      	push	{r7, lr}
 800346e:	b086      	sub	sp, #24
 8003470:	af00      	add	r7, sp, #0
 8003472:	6078      	str	r0, [r7, #4]
 8003474:	6039      	str	r1, [r7, #0]
  uint32_t tmpccmrx;
  uint32_t tmpccer;
  uint32_t tmpcr2;

  /* Disable the Channel 4: Reset the CC4E Bit */
  TIMx->CCER &= ~TIM_CCER_CC4E;
 8003476:	687b      	ldr	r3, [r7, #4]
 8003478:	6a1b      	ldr	r3, [r3, #32]
 800347a:	4a28      	ldr	r2, [pc, #160]	; (800351c <TIM_OC4_SetConfig+0xb0>)
 800347c:	401a      	ands	r2, r3
 800347e:	687b      	ldr	r3, [r7, #4]
 8003480:	621a      	str	r2, [r3, #32]

  /* Get the TIMx CCER register value */
  tmpccer = TIMx->CCER;
 8003482:	687b      	ldr	r3, [r7, #4]
 8003484:	6a1b      	ldr	r3, [r3, #32]
 8003486:	613b      	str	r3, [r7, #16]
  /* Get the TIMx CR2 register value */
  tmpcr2 =  TIMx->CR2;
 8003488:	687b      	ldr	r3, [r7, #4]
 800348a:	685b      	ldr	r3, [r3, #4]
 800348c:	617b      	str	r3, [r7, #20]

  /* Get the TIMx CCMR2 register value */
  tmpccmrx = TIMx->CCMR2;
 800348e:	687b      	ldr	r3, [r7, #4]
 8003490:	69db      	ldr	r3, [r3, #28]
 8003492:	60fb      	str	r3, [r7, #12]

  /* Reset the Output Compare mode and Capture/Compare selection Bits */
  tmpccmrx &= ~TIM_CCMR2_OC4M;
 8003494:	68fb      	ldr	r3, [r7, #12]
 8003496:	4a22      	ldr	r2, [pc, #136]	; (8003520 <TIM_OC4_SetConfig+0xb4>)
 8003498:	4013      	ands	r3, r2
 800349a:	60fb      	str	r3, [r7, #12]
  tmpccmrx &= ~TIM_CCMR2_CC4S;
 800349c:	68fb      	ldr	r3, [r7, #12]
 800349e:	4a21      	ldr	r2, [pc, #132]	; (8003524 <TIM_OC4_SetConfig+0xb8>)
 80034a0:	4013      	ands	r3, r2
 80034a2:	60fb      	str	r3, [r7, #12]

  /* Select the Output Compare Mode */
  tmpccmrx |= (OC_Config->OCMode << 8U);
 80034a4:	683b      	ldr	r3, [r7, #0]
 80034a6:	681b      	ldr	r3, [r3, #0]
 80034a8:	021b      	lsls	r3, r3, #8
 80034aa:	68fa      	ldr	r2, [r7, #12]
 80034ac:	4313      	orrs	r3, r2
 80034ae:	60fb      	str	r3, [r7, #12]

  /* Reset the Output Polarity level */
  tmpccer &= ~TIM_CCER_CC4P;
 80034b0:	693b      	ldr	r3, [r7, #16]
 80034b2:	4a1d      	ldr	r2, [pc, #116]	; (8003528 <TIM_OC4_SetConfig+0xbc>)
 80034b4:	4013      	ands	r3, r2
 80034b6:	613b      	str	r3, [r7, #16]
  /* Set the Output Compare Polarity */
  tmpccer |= (OC_Config->OCPolarity << 12U);
 80034b8:	683b      	ldr	r3, [r7, #0]
 80034ba:	689b      	ldr	r3, [r3, #8]
 80034bc:	031b      	lsls	r3, r3, #12
 80034be:	693a      	ldr	r2, [r7, #16]
 80034c0:	4313      	orrs	r3, r2
 80034c2:	613b      	str	r3, [r7, #16]

  if (IS_TIM_BREAK_INSTANCE(TIMx))
 80034c4:	687b      	ldr	r3, [r7, #4]
 80034c6:	4a19      	ldr	r2, [pc, #100]	; (800352c <TIM_OC4_SetConfig+0xc0>)
 80034c8:	4293      	cmp	r3, r2
 80034ca:	d00b      	beq.n	80034e4 <TIM_OC4_SetConfig+0x78>
 80034cc:	687b      	ldr	r3, [r7, #4]
 80034ce:	4a18      	ldr	r2, [pc, #96]	; (8003530 <TIM_OC4_SetConfig+0xc4>)
 80034d0:	4293      	cmp	r3, r2
 80034d2:	d007      	beq.n	80034e4 <TIM_OC4_SetConfig+0x78>
 80034d4:	687b      	ldr	r3, [r7, #4]
 80034d6:	4a17      	ldr	r2, [pc, #92]	; (8003534 <TIM_OC4_SetConfig+0xc8>)
 80034d8:	4293      	cmp	r3, r2
 80034da:	d003      	beq.n	80034e4 <TIM_OC4_SetConfig+0x78>
 80034dc:	687b      	ldr	r3, [r7, #4]
 80034de:	4a16      	ldr	r2, [pc, #88]	; (8003538 <TIM_OC4_SetConfig+0xcc>)
 80034e0:	4293      	cmp	r3, r2
 80034e2:	d109      	bne.n	80034f8 <TIM_OC4_SetConfig+0x8c>
  {
    /* Check parameters */
    assert_param(IS_TIM_OCIDLE_STATE(OC_Config->OCIdleState));

    /* Reset the Output Compare IDLE State */
    tmpcr2 &= ~TIM_CR2_OIS4;
 80034e4:	697b      	ldr	r3, [r7, #20]
 80034e6:	4a15      	ldr	r2, [pc, #84]	; (800353c <TIM_OC4_SetConfig+0xd0>)
 80034e8:	4013      	ands	r3, r2
 80034ea:	617b      	str	r3, [r7, #20]

    /* Set the Output Idle state */
    tmpcr2 |= (OC_Config->OCIdleState << 6U);
 80034ec:	683b      	ldr	r3, [r7, #0]
 80034ee:	695b      	ldr	r3, [r3, #20]
 80034f0:	019b      	lsls	r3, r3, #6
 80034f2:	697a      	ldr	r2, [r7, #20]
 80034f4:	4313      	orrs	r3, r2
 80034f6:	617b      	str	r3, [r7, #20]
  }

  /* Write to TIMx CR2 */
  TIMx->CR2 = tmpcr2;
 80034f8:	687b      	ldr	r3, [r7, #4]
 80034fa:	697a      	ldr	r2, [r7, #20]
 80034fc:	605a      	str	r2, [r3, #4]

  /* Write to TIMx CCMR2 */
  TIMx->CCMR2 = tmpccmrx;
 80034fe:	687b      	ldr	r3, [r7, #4]
 8003500:	68fa      	ldr	r2, [r7, #12]
 8003502:	61da      	str	r2, [r3, #28]

  /* Set the Capture Compare Register value */
  TIMx->CCR4 = OC_Config->Pulse;
 8003504:	683b      	ldr	r3, [r7, #0]
 8003506:	685a      	ldr	r2, [r3, #4]
 8003508:	687b      	ldr	r3, [r7, #4]
 800350a:	641a      	str	r2, [r3, #64]	; 0x40

  /* Write to TIMx CCER */
  TIMx->CCER = tmpccer;
 800350c:	687b      	ldr	r3, [r7, #4]
 800350e:	693a      	ldr	r2, [r7, #16]
 8003510:	621a      	str	r2, [r3, #32]
}
 8003512:	46c0      	nop			; (mov r8, r8)
 8003514:	46bd      	mov	sp, r7
 8003516:	b006      	add	sp, #24
 8003518:	bd80      	pop	{r7, pc}
 800351a:	46c0      	nop			; (mov r8, r8)
 800351c:	ffffefff 	.word	0xffffefff
 8003520:	feff8fff 	.word	0xfeff8fff
 8003524:	fffffcff 	.word	0xfffffcff
 8003528:	ffffdfff 	.word	0xffffdfff
 800352c:	40012c00 	.word	0x40012c00
 8003530:	40014000 	.word	0x40014000
 8003534:	40014400 	.word	0x40014400
 8003538:	40014800 	.word	0x40014800
 800353c:	ffffbfff 	.word	0xffffbfff

08003540 <TIM_OC5_SetConfig>:
  * @param  OC_Config The output configuration structure
  * @retval None
  */
static void TIM_OC5_SetConfig(TIM_TypeDef *TIMx,
                              TIM_OC_InitTypeDef *OC_Config)
{
 8003540:	b580      	push	{r7, lr}
 8003542:	b086      	sub	sp, #24
 8003544:	af00      	add	r7, sp, #0
 8003546:	6078      	str	r0, [r7, #4]
 8003548:	6039      	str	r1, [r7, #0]
  uint32_t tmpccmrx;
  uint32_t tmpccer;
  uint32_t tmpcr2;

  /* Disable the output: Reset the CCxE Bit */
  TIMx->CCER &= ~TIM_CCER_CC5E;
 800354a:	687b      	ldr	r3, [r7, #4]
 800354c:	6a1b      	ldr	r3, [r3, #32]
 800354e:	4a25      	ldr	r2, [pc, #148]	; (80035e4 <TIM_OC5_SetConfig+0xa4>)
 8003550:	401a      	ands	r2, r3
 8003552:	687b      	ldr	r3, [r7, #4]
 8003554:	621a      	str	r2, [r3, #32]

  /* Get the TIMx CCER register value */
  tmpccer = TIMx->CCER;
 8003556:	687b      	ldr	r3, [r7, #4]
 8003558:	6a1b      	ldr	r3, [r3, #32]
 800355a:	613b      	str	r3, [r7, #16]
  /* Get the TIMx CR2 register value */
  tmpcr2 =  TIMx->CR2;
 800355c:	687b      	ldr	r3, [r7, #4]
 800355e:	685b      	ldr	r3, [r3, #4]
 8003560:	617b      	str	r3, [r7, #20]
  /* Get the TIMx CCMR1 register value */
  tmpccmrx = TIMx->CCMR3;
 8003562:	687b      	ldr	r3, [r7, #4]
 8003564:	6d5b      	ldr	r3, [r3, #84]	; 0x54
 8003566:	60fb      	str	r3, [r7, #12]

  /* Reset the Output Compare Mode Bits */
  tmpccmrx &= ~(TIM_CCMR3_OC5M);
 8003568:	68fb      	ldr	r3, [r7, #12]
 800356a:	4a1f      	ldr	r2, [pc, #124]	; (80035e8 <TIM_OC5_SetConfig+0xa8>)
 800356c:	4013      	ands	r3, r2
 800356e:	60fb      	str	r3, [r7, #12]
  /* Select the Output Compare Mode */
  tmpccmrx |= OC_Config->OCMode;
 8003570:	683b      	ldr	r3, [r7, #0]
 8003572:	681b      	ldr	r3, [r3, #0]
 8003574:	68fa      	ldr	r2, [r7, #12]
 8003576:	4313      	orrs	r3, r2
 8003578:	60fb      	str	r3, [r7, #12]

  /* Reset the Output Polarity level */
  tmpccer &= ~TIM_CCER_CC5P;
 800357a:	693b      	ldr	r3, [r7, #16]
 800357c:	4a1b      	ldr	r2, [pc, #108]	; (80035ec <TIM_OC5_SetConfig+0xac>)
 800357e:	4013      	ands	r3, r2
 8003580:	613b      	str	r3, [r7, #16]
  /* Set the Output Compare Polarity */
  tmpccer |= (OC_Config->OCPolarity << 16U);
 8003582:	683b      	ldr	r3, [r7, #0]
 8003584:	689b      	ldr	r3, [r3, #8]
 8003586:	041b      	lsls	r3, r3, #16
 8003588:	693a      	ldr	r2, [r7, #16]
 800358a:	4313      	orrs	r3, r2
 800358c:	613b      	str	r3, [r7, #16]

  if (IS_TIM_BREAK_INSTANCE(TIMx))
 800358e:	687b      	ldr	r3, [r7, #4]
 8003590:	4a17      	ldr	r2, [pc, #92]	; (80035f0 <TIM_OC5_SetConfig+0xb0>)
 8003592:	4293      	cmp	r3, r2
 8003594:	d00b      	beq.n	80035ae <TIM_OC5_SetConfig+0x6e>
 8003596:	687b      	ldr	r3, [r7, #4]
 8003598:	4a16      	ldr	r2, [pc, #88]	; (80035f4 <TIM_OC5_SetConfig+0xb4>)
 800359a:	4293      	cmp	r3, r2
 800359c:	d007      	beq.n	80035ae <TIM_OC5_SetConfig+0x6e>
 800359e:	687b      	ldr	r3, [r7, #4]
 80035a0:	4a15      	ldr	r2, [pc, #84]	; (80035f8 <TIM_OC5_SetConfig+0xb8>)
 80035a2:	4293      	cmp	r3, r2
 80035a4:	d003      	beq.n	80035ae <TIM_OC5_SetConfig+0x6e>
 80035a6:	687b      	ldr	r3, [r7, #4]
 80035a8:	4a14      	ldr	r2, [pc, #80]	; (80035fc <TIM_OC5_SetConfig+0xbc>)
 80035aa:	4293      	cmp	r3, r2
 80035ac:	d109      	bne.n	80035c2 <TIM_OC5_SetConfig+0x82>
  {
    /* Reset the Output Compare IDLE State */
    tmpcr2 &= ~TIM_CR2_OIS5;
 80035ae:	697b      	ldr	r3, [r7, #20]
 80035b0:	4a0c      	ldr	r2, [pc, #48]	; (80035e4 <TIM_OC5_SetConfig+0xa4>)
 80035b2:	4013      	ands	r3, r2
 80035b4:	617b      	str	r3, [r7, #20]
    /* Set the Output Idle state */
    tmpcr2 |= (OC_Config->OCIdleState << 8U);
 80035b6:	683b      	ldr	r3, [r7, #0]
 80035b8:	695b      	ldr	r3, [r3, #20]
 80035ba:	021b      	lsls	r3, r3, #8
 80035bc:	697a      	ldr	r2, [r7, #20]
 80035be:	4313      	orrs	r3, r2
 80035c0:	617b      	str	r3, [r7, #20]
  }
  /* Write to TIMx CR2 */
  TIMx->CR2 = tmpcr2;
 80035c2:	687b      	ldr	r3, [r7, #4]
 80035c4:	697a      	ldr	r2, [r7, #20]
 80035c6:	605a      	str	r2, [r3, #4]

  /* Write to TIMx CCMR3 */
  TIMx->CCMR3 = tmpccmrx;
 80035c8:	687b      	ldr	r3, [r7, #4]
 80035ca:	68fa      	ldr	r2, [r7, #12]
 80035cc:	655a      	str	r2, [r3, #84]	; 0x54

  /* Set the Capture Compare Register value */
  TIMx->CCR5 = OC_Config->Pulse;
 80035ce:	683b      	ldr	r3, [r7, #0]
 80035d0:	685a      	ldr	r2, [r3, #4]
 80035d2:	687b      	ldr	r3, [r7, #4]
 80035d4:	659a      	str	r2, [r3, #88]	; 0x58

  /* Write to TIMx CCER */
  TIMx->CCER = tmpccer;
 80035d6:	687b      	ldr	r3, [r7, #4]
 80035d8:	693a      	ldr	r2, [r7, #16]
 80035da:	621a      	str	r2, [r3, #32]
}
 80035dc:	46c0      	nop			; (mov r8, r8)
 80035de:	46bd      	mov	sp, r7
 80035e0:	b006      	add	sp, #24
 80035e2:	bd80      	pop	{r7, pc}
 80035e4:	fffeffff 	.word	0xfffeffff
 80035e8:	fffeff8f 	.word	0xfffeff8f
 80035ec:	fffdffff 	.word	0xfffdffff
 80035f0:	40012c00 	.word	0x40012c00
 80035f4:	40014000 	.word	0x40014000
 80035f8:	40014400 	.word	0x40014400
 80035fc:	40014800 	.word	0x40014800

08003600 <TIM_OC6_SetConfig>:
  * @param  OC_Config The output configuration structure
  * @retval None
  */
static void TIM_OC6_SetConfig(TIM_TypeDef *TIMx,
                              TIM_OC_InitTypeDef *OC_Config)
{
 8003600:	b580      	push	{r7, lr}
 8003602:	b086      	sub	sp, #24
 8003604:	af00      	add	r7, sp, #0
 8003606:	6078      	str	r0, [r7, #4]
 8003608:	6039      	str	r1, [r7, #0]
  uint32_t tmpccmrx;
  uint32_t tmpccer;
  uint32_t tmpcr2;

  /* Disable the output: Reset the CCxE Bit */
  TIMx->CCER &= ~TIM_CCER_CC6E;
 800360a:	687b      	ldr	r3, [r7, #4]
 800360c:	6a1b      	ldr	r3, [r3, #32]
 800360e:	4a26      	ldr	r2, [pc, #152]	; (80036a8 <TIM_OC6_SetConfig+0xa8>)
 8003610:	401a      	ands	r2, r3
 8003612:	687b      	ldr	r3, [r7, #4]
 8003614:	621a      	str	r2, [r3, #32]

  /* Get the TIMx CCER register value */
  tmpccer = TIMx->CCER;
 8003616:	687b      	ldr	r3, [r7, #4]
 8003618:	6a1b      	ldr	r3, [r3, #32]
 800361a:	613b      	str	r3, [r7, #16]
  /* Get the TIMx CR2 register value */
  tmpcr2 =  TIMx->CR2;
 800361c:	687b      	ldr	r3, [r7, #4]
 800361e:	685b      	ldr	r3, [r3, #4]
 8003620:	617b      	str	r3, [r7, #20]
  /* Get the TIMx CCMR1 register value */
  tmpccmrx = TIMx->CCMR3;
 8003622:	687b      	ldr	r3, [r7, #4]
 8003624:	6d5b      	ldr	r3, [r3, #84]	; 0x54
 8003626:	60fb      	str	r3, [r7, #12]

  /* Reset the Output Compare Mode Bits */
  tmpccmrx &= ~(TIM_CCMR3_OC6M);
 8003628:	68fb      	ldr	r3, [r7, #12]
 800362a:	4a20      	ldr	r2, [pc, #128]	; (80036ac <TIM_OC6_SetConfig+0xac>)
 800362c:	4013      	ands	r3, r2
 800362e:	60fb      	str	r3, [r7, #12]
  /* Select the Output Compare Mode */
  tmpccmrx |= (OC_Config->OCMode << 8U);
 8003630:	683b      	ldr	r3, [r7, #0]
 8003632:	681b      	ldr	r3, [r3, #0]
 8003634:	021b      	lsls	r3, r3, #8
 8003636:	68fa      	ldr	r2, [r7, #12]
 8003638:	4313      	orrs	r3, r2
 800363a:	60fb      	str	r3, [r7, #12]

  /* Reset the Output Polarity level */
  tmpccer &= (uint32_t)~TIM_CCER_CC6P;
 800363c:	693b      	ldr	r3, [r7, #16]
 800363e:	4a1c      	ldr	r2, [pc, #112]	; (80036b0 <TIM_OC6_SetConfig+0xb0>)
 8003640:	4013      	ands	r3, r2
 8003642:	613b      	str	r3, [r7, #16]
  /* Set the Output Compare Polarity */
  tmpccer |= (OC_Config->OCPolarity << 20U);
 8003644:	683b      	ldr	r3, [r7, #0]
 8003646:	689b      	ldr	r3, [r3, #8]
 8003648:	051b      	lsls	r3, r3, #20
 800364a:	693a      	ldr	r2, [r7, #16]
 800364c:	4313      	orrs	r3, r2
 800364e:	613b      	str	r3, [r7, #16]

  if (IS_TIM_BREAK_INSTANCE(TIMx))
 8003650:	687b      	ldr	r3, [r7, #4]
 8003652:	4a18      	ldr	r2, [pc, #96]	; (80036b4 <TIM_OC6_SetConfig+0xb4>)
 8003654:	4293      	cmp	r3, r2
 8003656:	d00b      	beq.n	8003670 <TIM_OC6_SetConfig+0x70>
 8003658:	687b      	ldr	r3, [r7, #4]
 800365a:	4a17      	ldr	r2, [pc, #92]	; (80036b8 <TIM_OC6_SetConfig+0xb8>)
 800365c:	4293      	cmp	r3, r2
 800365e:	d007      	beq.n	8003670 <TIM_OC6_SetConfig+0x70>
 8003660:	687b      	ldr	r3, [r7, #4]
 8003662:	4a16      	ldr	r2, [pc, #88]	; (80036bc <TIM_OC6_SetConfig+0xbc>)
 8003664:	4293      	cmp	r3, r2
 8003666:	d003      	beq.n	8003670 <TIM_OC6_SetConfig+0x70>
 8003668:	687b      	ldr	r3, [r7, #4]
 800366a:	4a15      	ldr	r2, [pc, #84]	; (80036c0 <TIM_OC6_SetConfig+0xc0>)
 800366c:	4293      	cmp	r3, r2
 800366e:	d109      	bne.n	8003684 <TIM_OC6_SetConfig+0x84>
  {
    /* Reset the Output Compare IDLE State */
    tmpcr2 &= ~TIM_CR2_OIS6;
 8003670:	697b      	ldr	r3, [r7, #20]
 8003672:	4a14      	ldr	r2, [pc, #80]	; (80036c4 <TIM_OC6_SetConfig+0xc4>)
 8003674:	4013      	ands	r3, r2
 8003676:	617b      	str	r3, [r7, #20]
    /* Set the Output Idle state */
    tmpcr2 |= (OC_Config->OCIdleState << 10U);
 8003678:	683b      	ldr	r3, [r7, #0]
 800367a:	695b      	ldr	r3, [r3, #20]
 800367c:	029b      	lsls	r3, r3, #10
 800367e:	697a      	ldr	r2, [r7, #20]
 8003680:	4313      	orrs	r3, r2
 8003682:	617b      	str	r3, [r7, #20]
  }

  /* Write to TIMx CR2 */
  TIMx->CR2 = tmpcr2;
 8003684:	687b      	ldr	r3, [r7, #4]
 8003686:	697a      	ldr	r2, [r7, #20]
 8003688:	605a      	str	r2, [r3, #4]

  /* Write to TIMx CCMR3 */
  TIMx->CCMR3 = tmpccmrx;
 800368a:	687b      	ldr	r3, [r7, #4]
 800368c:	68fa      	ldr	r2, [r7, #12]
 800368e:	655a      	str	r2, [r3, #84]	; 0x54

  /* Set the Capture Compare Register value */
  TIMx->CCR6 = OC_Config->Pulse;
 8003690:	683b      	ldr	r3, [r7, #0]
 8003692:	685a      	ldr	r2, [r3, #4]
 8003694:	687b      	ldr	r3, [r7, #4]
 8003696:	65da      	str	r2, [r3, #92]	; 0x5c

  /* Write to TIMx CCER */
  TIMx->CCER = tmpccer;
 8003698:	687b      	ldr	r3, [r7, #4]
 800369a:	693a      	ldr	r2, [r7, #16]
 800369c:	621a      	str	r2, [r3, #32]
}
 800369e:	46c0      	nop			; (mov r8, r8)
 80036a0:	46bd      	mov	sp, r7
 80036a2:	b006      	add	sp, #24
 80036a4:	bd80      	pop	{r7, pc}
 80036a6:	46c0      	nop			; (mov r8, r8)
 80036a8:	ffefffff 	.word	0xffefffff
 80036ac:	feff8fff 	.word	0xfeff8fff
 80036b0:	ffdfffff 	.word	0xffdfffff
 80036b4:	40012c00 	.word	0x40012c00
 80036b8:	40014000 	.word	0x40014000
 80036bc:	40014400 	.word	0x40014400
 80036c0:	40014800 	.word	0x40014800
 80036c4:	fffbffff 	.word	0xfffbffff

080036c8 <TIM_TI1_ConfigInputStage>:
  * @param  TIM_ICFilter Specifies the Input Capture Filter.
  *          This parameter must be a value between 0x00 and 0x0F.
  * @retval None
  */
static void TIM_TI1_ConfigInputStage(TIM_TypeDef *TIMx, uint32_t TIM_ICPolarity, uint32_t TIM_ICFilter)
{
 80036c8:	b580      	push	{r7, lr}
 80036ca:	b086      	sub	sp, #24
 80036cc:	af00      	add	r7, sp, #0
 80036ce:	60f8      	str	r0, [r7, #12]
 80036d0:	60b9      	str	r1, [r7, #8]
 80036d2:	607a      	str	r2, [r7, #4]
  uint32_t tmpccmr1;
  uint32_t tmpccer;

  /* Disable the Channel 1: Reset the CC1E Bit */
  tmpccer = TIMx->CCER;
 80036d4:	68fb      	ldr	r3, [r7, #12]
 80036d6:	6a1b      	ldr	r3, [r3, #32]
 80036d8:	617b      	str	r3, [r7, #20]
  TIMx->CCER &= ~TIM_CCER_CC1E;
 80036da:	68fb      	ldr	r3, [r7, #12]
 80036dc:	6a1b      	ldr	r3, [r3, #32]
 80036de:	2201      	movs	r2, #1
 80036e0:	4393      	bics	r3, r2
 80036e2:	001a      	movs	r2, r3
 80036e4:	68fb      	ldr	r3, [r7, #12]
 80036e6:	621a      	str	r2, [r3, #32]
  tmpccmr1 = TIMx->CCMR1;
 80036e8:	68fb      	ldr	r3, [r7, #12]
 80036ea:	699b      	ldr	r3, [r3, #24]
 80036ec:	613b      	str	r3, [r7, #16]

  /* Set the filter */
  tmpccmr1 &= ~TIM_CCMR1_IC1F;
 80036ee:	693b      	ldr	r3, [r7, #16]
 80036f0:	22f0      	movs	r2, #240	; 0xf0
 80036f2:	4393      	bics	r3, r2
 80036f4:	613b      	str	r3, [r7, #16]
  tmpccmr1 |= (TIM_ICFilter << 4U);
 80036f6:	687b      	ldr	r3, [r7, #4]
 80036f8:	011b      	lsls	r3, r3, #4
 80036fa:	693a      	ldr	r2, [r7, #16]
 80036fc:	4313      	orrs	r3, r2
 80036fe:	613b      	str	r3, [r7, #16]

  /* Select the Polarity and set the CC1E Bit */
  tmpccer &= ~(TIM_CCER_CC1P | TIM_CCER_CC1NP);
 8003700:	697b      	ldr	r3, [r7, #20]
 8003702:	220a      	movs	r2, #10
 8003704:	4393      	bics	r3, r2
 8003706:	617b      	str	r3, [r7, #20]
  tmpccer |= TIM_ICPolarity;
 8003708:	697a      	ldr	r2, [r7, #20]
 800370a:	68bb      	ldr	r3, [r7, #8]
 800370c:	4313      	orrs	r3, r2
 800370e:	617b      	str	r3, [r7, #20]

  /* Write to TIMx CCMR1 and CCER registers */
  TIMx->CCMR1 = tmpccmr1;
 8003710:	68fb      	ldr	r3, [r7, #12]
 8003712:	693a      	ldr	r2, [r7, #16]
 8003714:	619a      	str	r2, [r3, #24]
  TIMx->CCER = tmpccer;
 8003716:	68fb      	ldr	r3, [r7, #12]
 8003718:	697a      	ldr	r2, [r7, #20]
 800371a:	621a      	str	r2, [r3, #32]
}
 800371c:	46c0      	nop			; (mov r8, r8)
 800371e:	46bd      	mov	sp, r7
 8003720:	b006      	add	sp, #24
 8003722:	bd80      	pop	{r7, pc}

08003724 <TIM_TI2_ConfigInputStage>:
  * @param  TIM_ICFilter Specifies the Input Capture Filter.
  *          This parameter must be a value between 0x00 and 0x0F.
  * @retval None
  */
static void TIM_TI2_ConfigInputStage(TIM_TypeDef *TIMx, uint32_t TIM_ICPolarity, uint32_t TIM_ICFilter)
{
 8003724:	b580      	push	{r7, lr}
 8003726:	b086      	sub	sp, #24
 8003728:	af00      	add	r7, sp, #0
 800372a:	60f8      	str	r0, [r7, #12]
 800372c:	60b9      	str	r1, [r7, #8]
 800372e:	607a      	str	r2, [r7, #4]
  uint32_t tmpccmr1;
  uint32_t tmpccer;

  /* Disable the Channel 2: Reset the CC2E Bit */
  TIMx->CCER &= ~TIM_CCER_CC2E;
 8003730:	68fb      	ldr	r3, [r7, #12]
 8003732:	6a1b      	ldr	r3, [r3, #32]
 8003734:	2210      	movs	r2, #16
 8003736:	4393      	bics	r3, r2
 8003738:	001a      	movs	r2, r3
 800373a:	68fb      	ldr	r3, [r7, #12]
 800373c:	621a      	str	r2, [r3, #32]
  tmpccmr1 = TIMx->CCMR1;
 800373e:	68fb      	ldr	r3, [r7, #12]
 8003740:	699b      	ldr	r3, [r3, #24]
 8003742:	617b      	str	r3, [r7, #20]
  tmpccer = TIMx->CCER;
 8003744:	68fb      	ldr	r3, [r7, #12]
 8003746:	6a1b      	ldr	r3, [r3, #32]
 8003748:	613b      	str	r3, [r7, #16]

  /* Set the filter */
  tmpccmr1 &= ~TIM_CCMR1_IC2F;
 800374a:	697b      	ldr	r3, [r7, #20]
 800374c:	4a0d      	ldr	r2, [pc, #52]	; (8003784 <TIM_TI2_ConfigInputStage+0x60>)
 800374e:	4013      	ands	r3, r2
 8003750:	617b      	str	r3, [r7, #20]
  tmpccmr1 |= (TIM_ICFilter << 12U);
 8003752:	687b      	ldr	r3, [r7, #4]
 8003754:	031b      	lsls	r3, r3, #12
 8003756:	697a      	ldr	r2, [r7, #20]
 8003758:	4313      	orrs	r3, r2
 800375a:	617b      	str	r3, [r7, #20]

  /* Select the Polarity and set the CC2E Bit */
  tmpccer &= ~(TIM_CCER_CC2P | TIM_CCER_CC2NP);
 800375c:	693b      	ldr	r3, [r7, #16]
 800375e:	22a0      	movs	r2, #160	; 0xa0
 8003760:	4393      	bics	r3, r2
 8003762:	613b      	str	r3, [r7, #16]
  tmpccer |= (TIM_ICPolarity << 4U);
 8003764:	68bb      	ldr	r3, [r7, #8]
 8003766:	011b      	lsls	r3, r3, #4
 8003768:	693a      	ldr	r2, [r7, #16]
 800376a:	4313      	orrs	r3, r2
 800376c:	613b      	str	r3, [r7, #16]

  /* Write to TIMx CCMR1 and CCER registers */
  TIMx->CCMR1 = tmpccmr1 ;
 800376e:	68fb      	ldr	r3, [r7, #12]
 8003770:	697a      	ldr	r2, [r7, #20]
 8003772:	619a      	str	r2, [r3, #24]
  TIMx->CCER = tmpccer;
 8003774:	68fb      	ldr	r3, [r7, #12]
 8003776:	693a      	ldr	r2, [r7, #16]
 8003778:	621a      	str	r2, [r3, #32]
}
 800377a:	46c0      	nop			; (mov r8, r8)
 800377c:	46bd      	mov	sp, r7
 800377e:	b006      	add	sp, #24
 8003780:	bd80      	pop	{r7, pc}
 8003782:	46c0      	nop			; (mov r8, r8)
 8003784:	ffff0fff 	.word	0xffff0fff

08003788 <TIM_ITRx_SetConfig>:
  *            @arg TIM_TS_TI2FP2: Filtered Timer Input 2
  *            @arg TIM_TS_ETRF: External Trigger input
  * @retval None
  */
static void TIM_ITRx_SetConfig(TIM_TypeDef *TIMx, uint32_t InputTriggerSource)
{
 8003788:	b580      	push	{r7, lr}
 800378a:	b084      	sub	sp, #16
 800378c:	af00      	add	r7, sp, #0
 800378e:	6078      	str	r0, [r7, #4]
 8003790:	6039      	str	r1, [r7, #0]
  uint32_t tmpsmcr;

  /* Get the TIMx SMCR register value */
  tmpsmcr = TIMx->SMCR;
 8003792:	687b      	ldr	r3, [r7, #4]
 8003794:	689b      	ldr	r3, [r3, #8]
 8003796:	60fb      	str	r3, [r7, #12]
  /* Reset the TS Bits */
  tmpsmcr &= ~TIM_SMCR_TS;
 8003798:	68fb      	ldr	r3, [r7, #12]
 800379a:	4a08      	ldr	r2, [pc, #32]	; (80037bc <TIM_ITRx_SetConfig+0x34>)
 800379c:	4013      	ands	r3, r2
 800379e:	60fb      	str	r3, [r7, #12]
  /* Set the Input Trigger source and the slave mode*/
  tmpsmcr |= (InputTriggerSource | TIM_SLAVEMODE_EXTERNAL1);
 80037a0:	683a      	ldr	r2, [r7, #0]
 80037a2:	68fb      	ldr	r3, [r7, #12]
 80037a4:	4313      	orrs	r3, r2
 80037a6:	2207      	movs	r2, #7
 80037a8:	4313      	orrs	r3, r2
 80037aa:	60fb      	str	r3, [r7, #12]
  /* Write to TIMx SMCR */
  TIMx->SMCR = tmpsmcr;
 80037ac:	687b      	ldr	r3, [r7, #4]
 80037ae:	68fa      	ldr	r2, [r7, #12]
 80037b0:	609a      	str	r2, [r3, #8]
}
 80037b2:	46c0      	nop			; (mov r8, r8)
 80037b4:	46bd      	mov	sp, r7
 80037b6:	b004      	add	sp, #16
 80037b8:	bd80      	pop	{r7, pc}
 80037ba:	46c0      	nop			; (mov r8, r8)
 80037bc:	ffcfff8f 	.word	0xffcfff8f

080037c0 <TIM_ETR_SetConfig>:
  *          This parameter must be a value between 0x00 and 0x0F
  * @retval None
  */
void TIM_ETR_SetConfig(TIM_TypeDef *TIMx, uint32_t TIM_ExtTRGPrescaler,
                       uint32_t TIM_ExtTRGPolarity, uint32_t ExtTRGFilter)
{
 80037c0:	b580      	push	{r7, lr}
 80037c2:	b086      	sub	sp, #24
 80037c4:	af00      	add	r7, sp, #0
 80037c6:	60f8      	str	r0, [r7, #12]
 80037c8:	60b9      	str	r1, [r7, #8]
 80037ca:	607a      	str	r2, [r7, #4]
 80037cc:	603b      	str	r3, [r7, #0]
  uint32_t tmpsmcr;

  tmpsmcr = TIMx->SMCR;
 80037ce:	68fb      	ldr	r3, [r7, #12]
 80037d0:	689b      	ldr	r3, [r3, #8]
 80037d2:	617b      	str	r3, [r7, #20]

  /* Reset the ETR Bits */
  tmpsmcr &= ~(TIM_SMCR_ETF | TIM_SMCR_ETPS | TIM_SMCR_ECE | TIM_SMCR_ETP);
 80037d4:	697b      	ldr	r3, [r7, #20]
 80037d6:	4a09      	ldr	r2, [pc, #36]	; (80037fc <TIM_ETR_SetConfig+0x3c>)
 80037d8:	4013      	ands	r3, r2
 80037da:	617b      	str	r3, [r7, #20]

  /* Set the Prescaler, the Filter value and the Polarity */
  tmpsmcr |= (uint32_t)(TIM_ExtTRGPrescaler | (TIM_ExtTRGPolarity | (ExtTRGFilter << 8U)));
 80037dc:	683b      	ldr	r3, [r7, #0]
 80037de:	021a      	lsls	r2, r3, #8
 80037e0:	687b      	ldr	r3, [r7, #4]
 80037e2:	431a      	orrs	r2, r3
 80037e4:	68bb      	ldr	r3, [r7, #8]
 80037e6:	4313      	orrs	r3, r2
 80037e8:	697a      	ldr	r2, [r7, #20]
 80037ea:	4313      	orrs	r3, r2
 80037ec:	617b      	str	r3, [r7, #20]

  /* Write to TIMx SMCR */
  TIMx->SMCR = tmpsmcr;
 80037ee:	68fb      	ldr	r3, [r7, #12]
 80037f0:	697a      	ldr	r2, [r7, #20]
 80037f2:	609a      	str	r2, [r3, #8]
}
 80037f4:	46c0      	nop			; (mov r8, r8)
 80037f6:	46bd      	mov	sp, r7
 80037f8:	b006      	add	sp, #24
 80037fa:	bd80      	pop	{r7, pc}
 80037fc:	ffff00ff 	.word	0xffff00ff

08003800 <TIM_CCxChannelCmd>:
  * @param  ChannelState specifies the TIM Channel CCxE bit new state.
  *          This parameter can be: TIM_CCx_ENABLE or TIM_CCx_DISABLE.
  * @retval None
  */
void TIM_CCxChannelCmd(TIM_TypeDef *TIMx, uint32_t Channel, uint32_t ChannelState)
{
 8003800:	b580      	push	{r7, lr}
 8003802:	b086      	sub	sp, #24
 8003804:	af00      	add	r7, sp, #0
 8003806:	60f8      	str	r0, [r7, #12]
 8003808:	60b9      	str	r1, [r7, #8]
 800380a:	607a      	str	r2, [r7, #4]

  /* Check the parameters */
  assert_param(IS_TIM_CC1_INSTANCE(TIMx));
  assert_param(IS_TIM_CHANNELS(Channel));

  tmp = TIM_CCER_CC1E << (Channel & 0x1FU); /* 0x1FU = 31 bits max shift */
 800380c:	68bb      	ldr	r3, [r7, #8]
 800380e:	221f      	movs	r2, #31
 8003810:	4013      	ands	r3, r2
 8003812:	2201      	movs	r2, #1
 8003814:	409a      	lsls	r2, r3
 8003816:	0013      	movs	r3, r2
 8003818:	617b      	str	r3, [r7, #20]

  /* Reset the CCxE Bit */
  TIMx->CCER &= ~tmp;
 800381a:	68fb      	ldr	r3, [r7, #12]
 800381c:	6a1b      	ldr	r3, [r3, #32]
 800381e:	697a      	ldr	r2, [r7, #20]
 8003820:	43d2      	mvns	r2, r2
 8003822:	401a      	ands	r2, r3
 8003824:	68fb      	ldr	r3, [r7, #12]
 8003826:	621a      	str	r2, [r3, #32]

  /* Set or reset the CCxE Bit */
  TIMx->CCER |= (uint32_t)(ChannelState << (Channel & 0x1FU)); /* 0x1FU = 31 bits max shift */
 8003828:	68fb      	ldr	r3, [r7, #12]
 800382a:	6a1a      	ldr	r2, [r3, #32]
 800382c:	68bb      	ldr	r3, [r7, #8]
 800382e:	211f      	movs	r1, #31
 8003830:	400b      	ands	r3, r1
 8003832:	6879      	ldr	r1, [r7, #4]
 8003834:	4099      	lsls	r1, r3
 8003836:	000b      	movs	r3, r1
 8003838:	431a      	orrs	r2, r3
 800383a:	68fb      	ldr	r3, [r7, #12]
 800383c:	621a      	str	r2, [r3, #32]
}
 800383e:	46c0      	nop			; (mov r8, r8)
 8003840:	46bd      	mov	sp, r7
 8003842:	b006      	add	sp, #24
 8003844:	bd80      	pop	{r7, pc}
	...

08003848 <HAL_TIMEx_MasterConfigSynchronization>:
  *         mode.
  * @retval HAL status
  */
HAL_StatusTypeDef HAL_TIMEx_MasterConfigSynchronization(TIM_HandleTypeDef *htim,
                                                        TIM_MasterConfigTypeDef *sMasterConfig)
{
 8003848:	b580      	push	{r7, lr}
 800384a:	b084      	sub	sp, #16
 800384c:	af00      	add	r7, sp, #0
 800384e:	6078      	str	r0, [r7, #4]
 8003850:	6039      	str	r1, [r7, #0]
  assert_param(IS_TIM_MASTER_INSTANCE(htim->Instance));
  assert_param(IS_TIM_TRGO_SOURCE(sMasterConfig->MasterOutputTrigger));
  assert_param(IS_TIM_MSM_STATE(sMasterConfig->MasterSlaveMode));

  /* Check input state */
  __HAL_LOCK(htim);
 8003852:	687b      	ldr	r3, [r7, #4]
 8003854:	223c      	movs	r2, #60	; 0x3c
 8003856:	5c9b      	ldrb	r3, [r3, r2]
 8003858:	2b01      	cmp	r3, #1
 800385a:	d101      	bne.n	8003860 <HAL_TIMEx_MasterConfigSynchronization+0x18>
 800385c:	2302      	movs	r3, #2
 800385e:	e05a      	b.n	8003916 <HAL_TIMEx_MasterConfigSynchronization+0xce>
 8003860:	687b      	ldr	r3, [r7, #4]
 8003862:	223c      	movs	r2, #60	; 0x3c
 8003864:	2101      	movs	r1, #1
 8003866:	5499      	strb	r1, [r3, r2]

  /* Change the handler state */
  htim->State = HAL_TIM_STATE_BUSY;
 8003868:	687b      	ldr	r3, [r7, #4]
 800386a:	223d      	movs	r2, #61	; 0x3d
 800386c:	2102      	movs	r1, #2
 800386e:	5499      	strb	r1, [r3, r2]

  /* Get the TIMx CR2 register value */
  tmpcr2 = htim->Instance->CR2;
 8003870:	687b      	ldr	r3, [r7, #4]
 8003872:	681b      	ldr	r3, [r3, #0]
 8003874:	685b      	ldr	r3, [r3, #4]
 8003876:	60fb      	str	r3, [r7, #12]

  /* Get the TIMx SMCR register value */
  tmpsmcr = htim->Instance->SMCR;
 8003878:	687b      	ldr	r3, [r7, #4]
 800387a:	681b      	ldr	r3, [r3, #0]
 800387c:	689b      	ldr	r3, [r3, #8]
 800387e:	60bb      	str	r3, [r7, #8]

  /* If the timer supports ADC synchronization through TRGO2, set the master mode selection 2 */
  if (IS_TIM_TRGO2_INSTANCE(htim->Instance))
 8003880:	687b      	ldr	r3, [r7, #4]
 8003882:	681b      	ldr	r3, [r3, #0]
 8003884:	4a26      	ldr	r2, [pc, #152]	; (8003920 <HAL_TIMEx_MasterConfigSynchronization+0xd8>)
 8003886:	4293      	cmp	r3, r2
 8003888:	d108      	bne.n	800389c <HAL_TIMEx_MasterConfigSynchronization+0x54>
  {
    /* Check the parameters */
    assert_param(IS_TIM_TRGO2_SOURCE(sMasterConfig->MasterOutputTrigger2));

    /* Clear the MMS2 bits */
    tmpcr2 &= ~TIM_CR2_MMS2;
 800388a:	68fb      	ldr	r3, [r7, #12]
 800388c:	4a25      	ldr	r2, [pc, #148]	; (8003924 <HAL_TIMEx_MasterConfigSynchronization+0xdc>)
 800388e:	4013      	ands	r3, r2
 8003890:	60fb      	str	r3, [r7, #12]
    /* Select the TRGO2 source*/
    tmpcr2 |= sMasterConfig->MasterOutputTrigger2;
 8003892:	683b      	ldr	r3, [r7, #0]
 8003894:	685b      	ldr	r3, [r3, #4]
 8003896:	68fa      	ldr	r2, [r7, #12]
 8003898:	4313      	orrs	r3, r2
 800389a:	60fb      	str	r3, [r7, #12]
  }

  /* Reset the MMS Bits */
  tmpcr2 &= ~TIM_CR2_MMS;
 800389c:	68fb      	ldr	r3, [r7, #12]
 800389e:	2270      	movs	r2, #112	; 0x70
 80038a0:	4393      	bics	r3, r2
 80038a2:	60fb      	str	r3, [r7, #12]
  /* Select the TRGO source */
  tmpcr2 |=  sMasterConfig->MasterOutputTrigger;
 80038a4:	683b      	ldr	r3, [r7, #0]
 80038a6:	681b      	ldr	r3, [r3, #0]
 80038a8:	68fa      	ldr	r2, [r7, #12]
 80038aa:	4313      	orrs	r3, r2
 80038ac:	60fb      	str	r3, [r7, #12]

  /* Update TIMx CR2 */
  htim->Instance->CR2 = tmpcr2;
 80038ae:	687b      	ldr	r3, [r7, #4]
 80038b0:	681b      	ldr	r3, [r3, #0]
 80038b2:	68fa      	ldr	r2, [r7, #12]
 80038b4:	605a      	str	r2, [r3, #4]

  if (IS_TIM_SLAVE_INSTANCE(htim->Instance))
 80038b6:	687b      	ldr	r3, [r7, #4]
 80038b8:	681b      	ldr	r3, [r3, #0]
 80038ba:	4a19      	ldr	r2, [pc, #100]	; (8003920 <HAL_TIMEx_MasterConfigSynchronization+0xd8>)
 80038bc:	4293      	cmp	r3, r2
 80038be:	d014      	beq.n	80038ea <HAL_TIMEx_MasterConfigSynchronization+0xa2>
 80038c0:	687b      	ldr	r3, [r7, #4]
 80038c2:	681a      	ldr	r2, [r3, #0]
 80038c4:	2380      	movs	r3, #128	; 0x80
 80038c6:	05db      	lsls	r3, r3, #23
 80038c8:	429a      	cmp	r2, r3
 80038ca:	d00e      	beq.n	80038ea <HAL_TIMEx_MasterConfigSynchronization+0xa2>
 80038cc:	687b      	ldr	r3, [r7, #4]
 80038ce:	681b      	ldr	r3, [r3, #0]
 80038d0:	4a15      	ldr	r2, [pc, #84]	; (8003928 <HAL_TIMEx_MasterConfigSynchronization+0xe0>)
 80038d2:	4293      	cmp	r3, r2
 80038d4:	d009      	beq.n	80038ea <HAL_TIMEx_MasterConfigSynchronization+0xa2>
 80038d6:	687b      	ldr	r3, [r7, #4]
 80038d8:	681b      	ldr	r3, [r3, #0]
 80038da:	4a14      	ldr	r2, [pc, #80]	; (800392c <HAL_TIMEx_MasterConfigSynchronization+0xe4>)
 80038dc:	4293      	cmp	r3, r2
 80038de:	d004      	beq.n	80038ea <HAL_TIMEx_MasterConfigSynchronization+0xa2>
 80038e0:	687b      	ldr	r3, [r7, #4]
 80038e2:	681b      	ldr	r3, [r3, #0]
 80038e4:	4a12      	ldr	r2, [pc, #72]	; (8003930 <HAL_TIMEx_MasterConfigSynchronization+0xe8>)
 80038e6:	4293      	cmp	r3, r2
 80038e8:	d10c      	bne.n	8003904 <HAL_TIMEx_MasterConfigSynchronization+0xbc>
  {
    /* Reset the MSM Bit */
    tmpsmcr &= ~TIM_SMCR_MSM;
 80038ea:	68bb      	ldr	r3, [r7, #8]
 80038ec:	2280      	movs	r2, #128	; 0x80
 80038ee:	4393      	bics	r3, r2
 80038f0:	60bb      	str	r3, [r7, #8]
    /* Set master mode */
    tmpsmcr |= sMasterConfig->MasterSlaveMode;
 80038f2:	683b      	ldr	r3, [r7, #0]
 80038f4:	689b      	ldr	r3, [r3, #8]
 80038f6:	68ba      	ldr	r2, [r7, #8]
 80038f8:	4313      	orrs	r3, r2
 80038fa:	60bb      	str	r3, [r7, #8]

    /* Update TIMx SMCR */
    htim->Instance->SMCR = tmpsmcr;
 80038fc:	687b      	ldr	r3, [r7, #4]
 80038fe:	681b      	ldr	r3, [r3, #0]
 8003900:	68ba      	ldr	r2, [r7, #8]
 8003902:	609a      	str	r2, [r3, #8]
  }

  /* Change the htim state */
  htim->State = HAL_TIM_STATE_READY;
 8003904:	687b      	ldr	r3, [r7, #4]
 8003906:	223d      	movs	r2, #61	; 0x3d
 8003908:	2101      	movs	r1, #1
 800390a:	5499      	strb	r1, [r3, r2]

  __HAL_UNLOCK(htim);
 800390c:	687b      	ldr	r3, [r7, #4]
 800390e:	223c      	movs	r2, #60	; 0x3c
 8003910:	2100      	movs	r1, #0
 8003912:	5499      	strb	r1, [r3, r2]

  return HAL_OK;
 8003914:	2300      	movs	r3, #0
}
 8003916:	0018      	movs	r0, r3
 8003918:	46bd      	mov	sp, r7
 800391a:	b004      	add	sp, #16
 800391c:	bd80      	pop	{r7, pc}
 800391e:	46c0      	nop			; (mov r8, r8)
 8003920:	40012c00 	.word	0x40012c00
 8003924:	ff0fffff 	.word	0xff0fffff
 8003928:	40000400 	.word	0x40000400
 800392c:	40000800 	.word	0x40000800
 8003930:	40014000 	.word	0x40014000

08003934 <__libc_init_array>:
 8003934:	b570      	push	{r4, r5, r6, lr}
 8003936:	2600      	movs	r6, #0
 8003938:	4d0c      	ldr	r5, [pc, #48]	; (800396c <__libc_init_array+0x38>)
 800393a:	4c0d      	ldr	r4, [pc, #52]	; (8003970 <__libc_init_array+0x3c>)
 800393c:	1b64      	subs	r4, r4, r5
 800393e:	10a4      	asrs	r4, r4, #2
 8003940:	42a6      	cmp	r6, r4
 8003942:	d109      	bne.n	8003958 <__libc_init_array+0x24>
 8003944:	2600      	movs	r6, #0
 8003946:	f000 f821 	bl	800398c <_init>
 800394a:	4d0a      	ldr	r5, [pc, #40]	; (8003974 <__libc_init_array+0x40>)
 800394c:	4c0a      	ldr	r4, [pc, #40]	; (8003978 <__libc_init_array+0x44>)
 800394e:	1b64      	subs	r4, r4, r5
 8003950:	10a4      	asrs	r4, r4, #2
 8003952:	42a6      	cmp	r6, r4
 8003954:	d105      	bne.n	8003962 <__libc_init_array+0x2e>
 8003956:	bd70      	pop	{r4, r5, r6, pc}
 8003958:	00b3      	lsls	r3, r6, #2
 800395a:	58eb      	ldr	r3, [r5, r3]
 800395c:	4798      	blx	r3
 800395e:	3601      	adds	r6, #1
 8003960:	e7ee      	b.n	8003940 <__libc_init_array+0xc>
 8003962:	00b3      	lsls	r3, r6, #2
 8003964:	58eb      	ldr	r3, [r5, r3]
 8003966:	4798      	blx	r3
 8003968:	3601      	adds	r6, #1
 800396a:	e7f2      	b.n	8003952 <__libc_init_array+0x1e>
 800396c:	08003a38 	.word	0x08003a38
 8003970:	08003a38 	.word	0x08003a38
 8003974:	08003a38 	.word	0x08003a38
 8003978:	08003a3c 	.word	0x08003a3c

0800397c <memset>:
 800397c:	0003      	movs	r3, r0
 800397e:	1882      	adds	r2, r0, r2
 8003980:	4293      	cmp	r3, r2
 8003982:	d100      	bne.n	8003986 <memset+0xa>
 8003984:	4770      	bx	lr
 8003986:	7019      	strb	r1, [r3, #0]
 8003988:	3301      	adds	r3, #1
 800398a:	e7f9      	b.n	8003980 <memset+0x4>

0800398c <_init>:
 800398c:	b5f8      	push	{r3, r4, r5, r6, r7, lr}
 800398e:	46c0      	nop			; (mov r8, r8)
 8003990:	bcf8      	pop	{r3, r4, r5, r6, r7}
 8003992:	bc08      	pop	{r3}
 8003994:	469e      	mov	lr, r3
 8003996:	4770      	bx	lr

08003998 <_fini>:
 8003998:	b5f8      	push	{r3, r4, r5, r6, r7, lr}
 800399a:	46c0      	nop			; (mov r8, r8)
 800399c:	bcf8      	pop	{r3, r4, r5, r6, r7}
 800399e:	bc08      	pop	{r3}
 80039a0:	469e      	mov	lr, r3
 80039a2:	4770      	bx	lr
